ARM GAS  C:\Users\DENIZA~1\AppData\Local\Temp\cclUb2i8.s 			page 1


   1              		.cpu cortex-m0plus
   2              		.arch armv6s-m
   3              		.fpu softvfp
   4              		.eabi_attribute 20, 1
   5              		.eabi_attribute 21, 1
   6              		.eabi_attribute 23, 3
   7              		.eabi_attribute 24, 1
   8              		.eabi_attribute 25, 1
   9              		.eabi_attribute 26, 1
  10              		.eabi_attribute 30, 4
  11              		.eabi_attribute 34, 0
  12              		.eabi_attribute 18, 4
  13              		.file	"EX2_PART1.c"
  14              		.text
  15              		.global	__aeabi_uidiv
  16              		.section	.text.startup,"ax",%progbits
  17              		.align	1
  18              		.global	main
  19              		.syntax unified
  20              		.code	16
  21              		.thumb_func
  23              	main:
  24              		@ args = 0, pretend = 0, frame = 8
  25              		@ frame_needed = 0, uses_anonymous_args = 0
  26 0000 F7B5     		push	{r0, r1, r2, r4, r5, r6, r7, lr}
  27 0002 4023     		movs	r3, #64
  28 0004 A027     		movs	r7, #160
  29 0006 0125     		movs	r5, #1
  30 0008 1C4C     		ldr	r4, .L3
  31 000a 3F06     		lsls	r7, r7, #24
  32 000c E26F     		ldr	r2, [r4, #124]
  33 000e 01AE     		add	r6, sp, #4
  34 0010 1343     		orrs	r3, r2
  35 0012 E367     		str	r3, [r4, #124]
  36 0014 3800     		movs	r0, r7
  37 0016 3300     		movs	r3, r6
  38 0018 1422     		movs	r2, #20
  39 001a 0021     		movs	r1, #0
  40 001c 3580     		strh	r5, [r6]
  41 001e FFF7FEFF 		bl	GPIO_PinInit
  42 0022 3300     		movs	r3, r6
  43 0024 3800     		movs	r0, r7
  44 0026 1322     		movs	r2, #19
  45 0028 0021     		movs	r1, #0
  46 002a FFF7FEFF 		bl	GPIO_PinInit
  47 002e 3300     		movs	r3, r6
  48 0030 0026     		movs	r6, #0
  49 0032 1222     		movs	r2, #18
  50 0034 3800     		movs	r0, r7
  51 0036 0021     		movs	r1, #0
  52 0038 FFF7FEFF 		bl	GPIO_PinInit
  53 003c 3E75     		strb	r6, [r7, #20]
  54 003e FE74     		strb	r6, [r7, #19]
  55 0040 BE74     		strb	r6, [r7, #18]
  56 0042 8027     		movs	r7, #128
  57 0044 E36F     		ldr	r3, [r4, #124]
  58 0046 FF00     		lsls	r7, r7, #3
ARM GAS  C:\Users\DENIZA~1\AppData\Local\Temp\cclUb2i8.s 			page 2


  59 0048 3B43     		orrs	r3, r7
  60 004a E367     		str	r3, [r4, #124]
  61 004c 0C4C     		ldr	r4, .L3+4
  62 004e 6946     		mov	r1, sp
  63 0050 2000     		movs	r0, r4
  64 0052 FFF7FEFF 		bl	MRT_Init
  65 0056 0622     		movs	r2, #6
  66 0058 A368     		ldr	r3, [r4, #8]
  67 005a 3000     		movs	r0, r6
  68 005c 9343     		bics	r3, r2
  69 005e A360     		str	r3, [r4, #8]
  70 0060 FFF7FEFF 		bl	CLOCK_GetFreq
  71 0064 6421     		movs	r1, #100
  72 0066 FFF7FEFF 		bl	__aeabi_uidiv
  73 006a 2060     		str	r0, [r4]
  74 006c A368     		ldr	r3, [r4, #8]
  75 006e 1D43     		orrs	r5, r3
  76 0070 A560     		str	r5, [r4, #8]
  77 0072 044B     		ldr	r3, .L3+8
  78 0074 1F60     		str	r7, [r3]
  79              	.L2:
  80              		.syntax divided
  81              	@ 54 "EX2_PART1.c" 1
  82 0076 30BF     		wfi
  83              	@ 0 "" 2
  84              		.thumb
  85              		.syntax unified
  86 0078 FDE7     		b	.L2
  87              	.L4:
  88 007a C046     		.align	2
  89              	.L3:
  90 007c 04800440 		.word	1074036740
  91 0080 00400040 		.word	1073758208
  92 0084 00E100E0 		.word	-536813312
  94              		.text
  95              		.align	1
  96              		.global	MRT0_IRQHandler
  97              		.syntax unified
  98              		.code	16
  99              		.thumb_func
 101              	MRT0_IRQHandler:
 102              		@ args = 0, pretend = 0, frame = 0
 103              		@ frame_needed = 0, uses_anonymous_args = 0
 104              		@ link register save eliminated.
 105 0000 0122     		movs	r2, #1
 106 0002 144B     		ldr	r3, .L10
 107 0004 DA60     		str	r2, [r3, #12]
 108 0006 144B     		ldr	r3, .L10+4
 109 0008 1868     		ldr	r0, [r3]
 110 000a 0028     		cmp	r0, #0
 111 000c 08D1     		bne	.L6
 112 000e A021     		movs	r1, #160
 113 0010 0906     		lsls	r1, r1, #24
 114 0012 C874     		strb	r0, [r1, #19]
 115 0014 0875     		strb	r0, [r1, #20]
 116 0016 8A74     		strb	r2, [r1, #18]
 117              	.L7:
ARM GAS  C:\Users\DENIZA~1\AppData\Local\Temp\cclUb2i8.s 			page 3


 118 0018 1A68     		ldr	r2, [r3]
 119              		@ sp needed
 120 001a 0132     		adds	r2, r2, #1
 121 001c 1A60     		str	r2, [r3]
 122 001e 7047     		bx	lr
 123              	.L6:
 124 0020 1968     		ldr	r1, [r3]
 125 0022 3229     		cmp	r1, #50
 126 0024 05D1     		bne	.L8
 127 0026 A021     		movs	r1, #160
 128 0028 0020     		movs	r0, #0
 129 002a 0906     		lsls	r1, r1, #24
 130 002c 8874     		strb	r0, [r1, #18]
 131 002e 0A75     		strb	r2, [r1, #20]
 132 0030 F2E7     		b	.L7
 133              	.L8:
 134 0032 1968     		ldr	r1, [r3]
 135 0034 6429     		cmp	r1, #100
 136 0036 05D1     		bne	.L9
 137 0038 A021     		movs	r1, #160
 138 003a 0020     		movs	r0, #0
 139 003c 0906     		lsls	r1, r1, #24
 140 003e 0875     		strb	r0, [r1, #20]
 141 0040 CA74     		strb	r2, [r1, #19]
 142 0042 E9E7     		b	.L7
 143              	.L9:
 144 0044 1A68     		ldr	r2, [r3]
 145 0046 952A     		cmp	r2, #149
 146 0048 E6D9     		bls	.L7
 147 004a 0122     		movs	r2, #1
 148 004c 5242     		rsbs	r2, r2, #0
 149 004e 1A60     		str	r2, [r3]
 150 0050 E2E7     		b	.L7
 151              	.L11:
 152 0052 C046     		.align	2
 153              	.L10:
 154 0054 00400040 		.word	1073758208
 155 0058 00000000 		.word	.LANCHOR0
 157              		.global	counter
 158              		.bss
 159              		.align	2
 160              		.set	.LANCHOR0,. + 0
 163              	counter:
 164 0000 00000000 		.space	4
 165              		.ident	"GCC: (Arm GNU Toolchain 13.3.Rel1 (Build arm-13.24)) 13.3.1 20240614"
ARM GAS  C:\Users\DENIZA~1\AppData\Local\Temp\cclUb2i8.s 			page 4


DEFINED SYMBOLS
                            *ABS*:00000000 EX2_PART1.c
C:\Users\DENIZA~1\AppData\Local\Temp\cclUb2i8.s:17     .text.startup:00000000 $t
C:\Users\DENIZA~1\AppData\Local\Temp\cclUb2i8.s:23     .text.startup:00000000 main
C:\Users\DENIZA~1\AppData\Local\Temp\cclUb2i8.s:90     .text.startup:0000007c $d
C:\Users\DENIZA~1\AppData\Local\Temp\cclUb2i8.s:95     .text:00000000 $t
C:\Users\DENIZA~1\AppData\Local\Temp\cclUb2i8.s:101    .text:00000000 MRT0_IRQHandler
C:\Users\DENIZA~1\AppData\Local\Temp\cclUb2i8.s:154    .text:00000054 $d
C:\Users\DENIZA~1\AppData\Local\Temp\cclUb2i8.s:163    .bss:00000000 counter
C:\Users\DENIZA~1\AppData\Local\Temp\cclUb2i8.s:159    .bss:00000000 $d

UNDEFINED SYMBOLS
__aeabi_uidiv
GPIO_PinInit
MRT_Init
CLOCK_GetFreq
