ARM GAS  C:\Users\DENIZA~1\AppData\Local\Temp\ccTqGCfJ.s 			page 1


   1              		.cpu cortex-m0plus
   2              		.arch armv6s-m
   3              		.fpu softvfp
   4              		.eabi_attribute 20, 1
   5              		.eabi_attribute 21, 1
   6              		.eabi_attribute 23, 3
   7              		.eabi_attribute 24, 1
   8              		.eabi_attribute 25, 1
   9              		.eabi_attribute 26, 1
  10              		.eabi_attribute 30, 4
  11              		.eabi_attribute 34, 0
  12              		.eabi_attribute 18, 4
  13              		.file	"EX3_PART2.c"
  14              		.text
  15              		.align	1
  16              		.global	uart_putch
  17              		.syntax unified
  18              		.code	16
  19              		.thumb_func
  21              	uart_putch:
  22              		@ args = 0, pretend = 0, frame = 0
  23              		@ frame_needed = 0, uses_anonymous_args = 0
  24              		@ link register save eliminated.
  25 0000 0423     		movs	r3, #4
  26 0002 0349     		ldr	r1, .L5
  27              	.L2:
  28 0004 0A68     		ldr	r2, [r1]
  29 0006 1A42     		tst	r2, r3
  30 0008 FCD0     		beq	.L2
  31              		@ sp needed
  32 000a 024B     		ldr	r3, .L5+4
  33 000c 1860     		str	r0, [r3]
  34 000e 7047     		bx	lr
  35              	.L6:
  36              		.align	2
  37              	.L5:
  38 0010 08400640 		.word	1074151432
  39 0014 1C400640 		.word	1074151452
  41              		.align	1
  42              		.global	SCT0_IRQHandler
  43              		.syntax unified
  44              		.code	16
  45              		.thumb_func
  47              	SCT0_IRQHandler:
  48              		@ args = 0, pretend = 0, frame = 0
  49              		@ frame_needed = 0, uses_anonymous_args = 0
  50              		@ link register save eliminated.
  51 0018 0122     		movs	r2, #1
  52 001a 084B     		ldr	r3, .L12
  53 001c 1A60     		str	r2, [r3]
  54 001e 0022     		movs	r2, #0
  55 0020 074B     		ldr	r3, .L12+4
  56 0022 1A60     		str	r2, [r3]
  57 0024 074B     		ldr	r3, .L12+8
  58 0026 1B78     		ldrb	r3, [r3]
  59 0028 9342     		cmp	r3, r2
  60 002a 05D0     		beq	.L7
ARM GAS  C:\Users\DENIZA~1\AppData\Local\Temp\ccTqGCfJ.s 			page 2


  61 002c 8023     		movs	r3, #128
  62 002e 064A     		ldr	r2, .L12+12
  63 0030 DB04     		lsls	r3, r3, #19
  64 0032 9168     		ldr	r1, [r2, #8]
  65 0034 0B43     		orrs	r3, r1
  66 0036 9360     		str	r3, [r2, #8]
  67              	.L7:
  68              		@ sp needed
  69 0038 7047     		bx	lr
  70              	.L13:
  71 003a C046     		.align	2
  72              	.L12:
  73 003c F4400050 		.word	1342193908
  74 0040 FC400050 		.word	1342193916
  75 0044 00000000 		.word	.LANCHOR0
  76 0048 00C00140 		.word	1073856512
  78              		.align	1
  79              		.global	ADC0_SEQA_IRQHandler
  80              		.syntax unified
  81              		.code	16
  82              		.thumb_func
  84              	ADC0_SEQA_IRQHandler:
  85              		@ args = 0, pretend = 0, frame = 0
  86              		@ frame_needed = 0, uses_anonymous_args = 0
  87 004c 70B5     		push	{r4, r5, r6, lr}
  88 004e 8026     		movs	r6, #128
  89 0050 0A4D     		ldr	r5, .L19
  90 0052 7605     		lsls	r6, r6, #21
  91 0054 AB6E     		ldr	r3, [r5, #104]
  92 0056 3342     		tst	r3, r6
  93 0058 0FD0     		beq	.L14
  94 005a 094C     		ldr	r4, .L19+4
  95 005c 0021     		movs	r1, #0
  96 005e 2200     		movs	r2, r4
  97 0060 2800     		movs	r0, r5
  98 0062 FFF7FEFF 		bl	ADC_GetChannelConversionResult
  99 0066 2200     		movs	r2, r4
 100 0068 0121     		movs	r1, #1
 101 006a 2800     		movs	r0, r5
 102 006c 1032     		adds	r2, r2, #16
 103 006e FFF7FEFF 		bl	ADC_GetChannelConversionResult
 104 0072 0123     		movs	r3, #1
 105 0074 0134     		adds	r4, r4, #1
 106 0076 E377     		strb	r3, [r4, #31]
 107 0078 AE66     		str	r6, [r5, #104]
 108              	.L14:
 109              		@ sp needed
 110 007a 70BD     		pop	{r4, r5, r6, pc}
 111              	.L20:
 112              		.align	2
 113              	.L19:
 114 007c 00C00140 		.word	1073856512
 115 0080 00000000 		.word	.LANCHOR1
 117              		.align	1
 118              		.global	ADC_Configuration
 119              		.syntax unified
 120              		.code	16
ARM GAS  C:\Users\DENIZA~1\AppData\Local\Temp\ccTqGCfJ.s 			page 3


 121              		.thumb_func
 123              	ADC_Configuration:
 124              		@ args = 0, pretend = 0, frame = 24
 125              		@ frame_needed = 0, uses_anonymous_args = 0
 126 0084 0123     		movs	r3, #1
 127 0086 10B5     		push	{r4, lr}
 128 0088 86B0     		sub	sp, sp, #24
 129 008a 0193     		str	r3, [sp, #4]
 130 008c 0023     		movs	r3, #0
 131 008e 0D4C     		ldr	r4, .L22
 132 0090 01A9     		add	r1, sp, #4
 133 0092 2000     		movs	r0, r4
 134 0094 8B80     		strh	r3, [r1, #4]
 135 0096 FFF7FEFF 		bl	ADC_Init
 136 009a 0323     		movs	r3, #3
 137 009c 0393     		str	r3, [sp, #12]
 138 009e 0493     		str	r3, [sp, #16]
 139 00a0 094B     		ldr	r3, .L22+4
 140 00a2 2000     		movs	r0, r4
 141 00a4 03A9     		add	r1, sp, #12
 142 00a6 0593     		str	r3, [sp, #20]
 143 00a8 FFF7FEFF 		bl	ADC_SetConvSeqAConfig
 144 00ac 8023     		movs	r3, #128
 145 00ae A268     		ldr	r2, [r4, #8]
 146 00b0 1B06     		lsls	r3, r3, #24
 147 00b2 1343     		orrs	r3, r2
 148 00b4 A360     		str	r3, [r4, #8]
 149 00b6 8023     		movs	r3, #128
 150 00b8 A268     		ldr	r2, [r4, #8]
 151 00ba DB04     		lsls	r3, r3, #19
 152 00bc 1343     		orrs	r3, r2
 153 00be A360     		str	r3, [r4, #8]
 154 00c0 06B0     		add	sp, sp, #24
 155              		@ sp needed
 156 00c2 10BD     		pop	{r4, pc}
 157              	.L23:
 158              		.align	2
 159              	.L22:
 160 00c4 00C00140 		.word	1073856512
 161 00c8 01000001 		.word	16777217
 163              		.align	1
 164              		.global	uart_init
 165              		.syntax unified
 166              		.code	16
 167              		.thumb_func
 169              	uart_init:
 170              		@ args = 0, pretend = 0, frame = 16
 171              		@ frame_needed = 0, uses_anonymous_args = 0
 172 00cc 1FB5     		push	{r0, r1, r2, r3, r4, lr}
 173 00ce 8023     		movs	r3, #128
 174              		@ sp needed
 175 00d0 0C4A     		ldr	r2, .L25
 176 00d2 DB01     		lsls	r3, r3, #7
 177 00d4 D16F     		ldr	r1, [r2, #124]
 178 00d6 0C4C     		ldr	r4, .L25+4
 179 00d8 0B43     		orrs	r3, r1
 180 00da D367     		str	r3, [r2, #124]
ARM GAS  C:\Users\DENIZA~1\AppData\Local\Temp\ccTqGCfJ.s 			page 4


 181 00dc 1A22     		movs	r2, #26
 182 00de 0B4B     		ldr	r3, .L25+8
 183 00e0 6846     		mov	r0, sp
 184 00e2 1A60     		str	r2, [r3]
 185 00e4 0123     		movs	r3, #1
 186 00e6 2362     		str	r3, [r4, #32]
 187 00e8 FFF7FEFF 		bl	USART_GetDefaultConfig
 188 00ec 0223     		movs	r3, #2
 189 00ee 6A46     		mov	r2, sp
 190 00f0 FF33     		adds	r3, r3, #255
 191 00f2 9380     		strh	r3, [r2, #4]
 192 00f4 6946     		mov	r1, sp
 193 00f6 0022     		movs	r2, #0
 194 00f8 2000     		movs	r0, r4
 195 00fa FFF7FEFF 		bl	USART_Init
 196 00fe 0523     		movs	r3, #5
 197 0100 2360     		str	r3, [r4]
 198 0102 1FBD     		pop	{r0, r1, r2, r3, r4, pc}
 199              	.L26:
 200              		.align	2
 201              	.L25:
 202 0104 04800440 		.word	1074036740
 203 0108 00400640 		.word	1074151424
 204 010c 94800440 		.word	1074036884
 206              		.align	1
 207              		.global	SCT_Configuration
 208              		.syntax unified
 209              		.code	16
 210              		.thumb_func
 212              	SCT_Configuration:
 213              		@ args = 0, pretend = 0, frame = 16
 214              		@ frame_needed = 0, uses_anonymous_args = 0
 215 0110 70B5     		push	{r4, r5, r6, lr}
 216 0112 86B0     		sub	sp, sp, #24
 217 0114 03AD     		add	r5, sp, #12
 218 0116 2800     		movs	r0, r5
 219 0118 FFF7FEFF 		bl	SCTIMER_GetDefaultConfig
 220 011c 0026     		movs	r6, #0
 221 011e E723     		movs	r3, #231
 222 0120 164C     		ldr	r4, .L28
 223 0122 2900     		movs	r1, r5
 224 0124 2000     		movs	r0, r4
 225 0126 2E80     		strh	r6, [r5]
 226 0128 EE70     		strb	r6, [r5, #3]
 227 012a 6B71     		strb	r3, [r5, #5]
 228 012c FFF7FEFF 		bl	SCTIMER_Init
 229 0130 0125     		movs	r5, #1
 230 0132 CA22     		movs	r2, #202
 231 0134 8021     		movs	r1, #128
 232 0136 02AB     		add	r3, sp, #8
 233 0138 0193     		str	r3, [sp, #4]
 234 013a 0095     		str	r5, [sp]
 235 013c 3300     		movs	r3, r6
 236 013e 2000     		movs	r0, r4
 237 0140 D201     		lsls	r2, r2, #7
 238 0142 4901     		lsls	r1, r1, #5
 239 0144 FFF7FEFF 		bl	SCTIMER_CreateAndScheduleEvent
ARM GAS  C:\Users\DENIZA~1\AppData\Local\Temp\ccTqGCfJ.s 			page 5


 240 0148 2000     		movs	r0, r4
 241 014a 029A     		ldr	r2, [sp, #8]
 242 014c 0321     		movs	r1, #3
 243 014e FFF7FEFF 		bl	SCTIMER_SetupOutputToggleAction
 244 0152 029B     		ldr	r3, [sp, #8]
 245 0154 C121     		movs	r1, #193
 246 0156 9D40     		lsls	r5, r5, r3
 247 0158 2289     		ldrh	r2, [r4, #8]
 248 015a DB00     		lsls	r3, r3, #3
 249 015c 2A43     		orrs	r2, r5
 250 015e 92B2     		uxth	r2, r2
 251 0160 2281     		strh	r2, [r4, #8]
 252 0162 1B19     		adds	r3, r3, r4
 253 0164 8900     		lsls	r1, r1, #2
 254 0166 5A58     		ldr	r2, [r3, r1]
 255 0168 0548     		ldr	r0, .L28+4
 256 016a 0240     		ands	r2, r0
 257 016c 5A50     		str	r2, [r3, r1]
 258 016e 0422     		movs	r2, #4
 259 0170 A388     		ldrh	r3, [r4, #4]
 260 0172 9343     		bics	r3, r2
 261 0174 A380     		strh	r3, [r4, #4]
 262 0176 06B0     		add	sp, sp, #24
 263              		@ sp needed
 264 0178 70BD     		pop	{r4, r5, r6, pc}
 265              	.L29:
 266 017a C046     		.align	2
 267              	.L28:
 268 017c 00400050 		.word	1342193664
 269 0180 FFFF9FFF 		.word	-6291457
 271              		.section	.rodata.str1.1,"aMS",%progbits,1
 272              	.LC6:
 273 0000 41444320 		.ascii	"ADC Calibration Done.\015\012\000"
 273      43616C69 
 273      62726174 
 273      696F6E20 
 273      446F6E65 
 274              	.LC8:
 275 0018 41444320 		.ascii	"ADC Calibration Failed.\015\012\000"
 275      43616C69 
 275      62726174 
 275      696F6E20 
 275      4661696C 
 276              	.LC11:
 277 0032 436F6E66 		.ascii	"Configuration Done.\012\000"
 277      69677572 
 277      6174696F 
 277      6E20446F 
 277      6E652E0A 
 278              		.global	__aeabi_uidiv
 279              	.LC13:
 280 0047 41444330 		.ascii	"ADC0=%d mV, ADC1=%d mV\015\012\000"
 280      3D256420 
 280      6D562C20 
 280      41444331 
 280      3D256420 
 281              		.section	.text.startup,"ax",%progbits
ARM GAS  C:\Users\DENIZA~1\AppData\Local\Temp\ccTqGCfJ.s 			page 6


 282              		.align	1
 283              		.global	main
 284              		.syntax unified
 285              		.code	16
 286              		.thumb_func
 288              	main:
 289              		@ args = 0, pretend = 0, frame = 16
 290              		@ frame_needed = 0, uses_anonymous_args = 0
 291 0000 F0B5     		push	{r4, r5, r6, r7, lr}
 292 0002 85B0     		sub	sp, sp, #20
 293 0004 FFF7FEFF 		bl	BOARD_InitPins
 294 0008 FFF7FEFF 		bl	BOARD_InitBootClocks
 295 000c FFF7FEFF 		bl	uart_init
 296 0010 3E4B     		ldr	r3, .L39
 297 0012 3F4A     		ldr	r2, .L39+4
 298 0014 3F4C     		ldr	r4, .L39+8
 299 0016 1A60     		str	r2, [r3]
 300 0018 8023     		movs	r3, #128
 301 001a E26F     		ldr	r2, [r4, #124]
 302 001c 5B00     		lsls	r3, r3, #1
 303 001e 1343     		orrs	r3, r2
 304 0020 E367     		str	r3, [r4, #124]
 305 0022 FFF7FEFF 		bl	SCT_Configuration
 306 0026 8023     		movs	r3, #128
 307 0028 E26F     		ldr	r2, [r4, #124]
 308 002a 5B04     		lsls	r3, r3, #17
 309 002c 1343     		orrs	r3, r2
 310 002e 8E22     		movs	r2, #142
 311 0030 1021     		movs	r1, #16
 312 0032 394D     		ldr	r5, .L39+12
 313 0034 E367     		str	r3, [r4, #124]
 314 0036 9200     		lsls	r2, r2, #2
 315 0038 AB58     		ldr	r3, [r5, r2]
 316 003a 0320     		movs	r0, #3
 317 003c 8B43     		bics	r3, r1
 318 003e AB50     		str	r3, [r5, r2]
 319 0040 A025     		movs	r5, #160
 320 0042 FFF7FEFF 		bl	CLOCK_GetFreq
 321 0046 0122     		movs	r2, #1
 322 0048 03AB     		add	r3, sp, #12
 323 004a 2D06     		lsls	r5, r5, #24
 324 004c 1A80     		strh	r2, [r3]
 325 004e 0400     		movs	r4, r0
 326 0050 0021     		movs	r1, #0
 327 0052 2800     		movs	r0, r5
 328 0054 1332     		adds	r2, r2, #19
 329 0056 FFF7FEFF 		bl	GPIO_PinInit
 330 005a 0023     		movs	r3, #0
 331 005c 2100     		movs	r1, r4
 332 005e 2F48     		ldr	r0, .L39+16
 333 0060 2B75     		strb	r3, [r5, #20]
 334 0062 FFF7FEFF 		bl	ADC_DoSelfCalibration
 335 0066 0028     		cmp	r0, #0
 336 0068 47D0     		beq	.L31
 337 006a 2D48     		ldr	r0, .L39+20
 338              	.L38:
 339 006c FFF7FEFF 		bl	xprintf
ARM GAS  C:\Users\DENIZA~1\AppData\Local\Temp\ccTqGCfJ.s 			page 7


 340 0070 FFF7FEFF 		bl	ADC_Configuration
 341 0074 0123     		movs	r3, #1
 342 0076 294A     		ldr	r2, .L39+16
 343 0078 516E     		ldr	r1, [r2, #100]
 344 007a 0B43     		orrs	r3, r1
 345 007c 5366     		str	r3, [r2, #100]
 346 007e 8023     		movs	r3, #128
 347 0080 284D     		ldr	r5, .L39+24
 348 0082 5B02     		lsls	r3, r3, #9
 349 0084 2B60     		str	r3, [r5]
 350 0086 C421     		movs	r1, #196
 351 0088 FF23     		movs	r3, #255
 352 008a 8900     		lsls	r1, r1, #2
 353 008c 6A58     		ldr	r2, [r5, r1]
 354 008e 9A43     		bics	r2, r3
 355 0090 7F3B     		subs	r3, r3, #127
 356 0092 1343     		orrs	r3, r2
 357 0094 6B50     		str	r3, [r5, r1]
 358 0096 FFF7FEFF 		bl	SCT_Configuration
 359 009a 234A     		ldr	r2, .L39+28
 360 009c 234C     		ldr	r4, .L39+32
 361 009e 1368     		ldr	r3, [r2]
 362 00a0 616A     		ldr	r1, [r4, #36]
 363 00a2 0B43     		orrs	r3, r1
 364 00a4 1360     		str	r3, [r2]
 365 00a6 8023     		movs	r3, #128
 366 00a8 9B00     		lsls	r3, r3, #2
 367 00aa 2B60     		str	r3, [r5]
 368 00ac A027     		movs	r7, #160
 369 00ae 2048     		ldr	r0, .L39+36
 370 00b0 FFF7FEFF 		bl	xprintf
 371 00b4 3F06     		lsls	r7, r7, #24
 372              	.L33:
 373 00b6 631C     		adds	r3, r4, #1
 374 00b8 DA7F     		ldrb	r2, [r3, #31]
 375 00ba 002A     		cmp	r2, #0
 376 00bc 1FD0     		beq	.L34
 377 00be 0022     		movs	r2, #0
 378 00c0 DA77     		strb	r2, [r3, #31]
 379 00c2 A36A     		ldr	r3, [r4, #40]
 380 00c4 DBB2     		uxtb	r3, r3
 381 00c6 3B75     		strb	r3, [r7, #20]
 382 00c8 A36A     		ldr	r3, [r4, #40]
 383 00ca 9342     		cmp	r3, r2
 384 00cc 19D1     		bne	.L35
 385 00ce 0123     		movs	r3, #1
 386 00d0 A362     		str	r3, [r4, #40]
 387              	.L36:
 388 00d2 2668     		ldr	r6, [r4]
 389 00d4 174D     		ldr	r5, .L39+40
 390 00d6 2069     		ldr	r0, [r4, #16]
 391 00d8 1749     		ldr	r1, .L39+44
 392 00da 6843     		muls	r0, r5
 393 00dc FFF7FEFF 		bl	__aeabi_uidiv
 394 00e0 03B2     		sxth	r3, r0
 395 00e2 2800     		movs	r0, r5
 396 00e4 1449     		ldr	r1, .L39+44
ARM GAS  C:\Users\DENIZA~1\AppData\Local\Temp\ccTqGCfJ.s 			page 8


 397 00e6 7043     		muls	r0, r6
 398 00e8 0193     		str	r3, [sp, #4]
 399 00ea FFF7FEFF 		bl	__aeabi_uidiv
 400 00ee 019A     		ldr	r2, [sp, #4]
 401 00f0 01B2     		sxth	r1, r0
 402 00f2 1248     		ldr	r0, .L39+48
 403 00f4 FFF7FEFF 		bl	xprintf
 404 00f8 DDE7     		b	.L33
 405              	.L31:
 406 00fa 1148     		ldr	r0, .L39+52
 407 00fc B6E7     		b	.L38
 408              	.L34:
 409              		.syntax divided
 410              	@ 87 "EX3_PART2.c" 1
 411 00fe 30BF     		wfi
 412              	@ 0 "" 2
 413              		.thumb
 414              		.syntax unified
 415 0100 D9E7     		b	.L33
 416              	.L35:
 417 0102 A36A     		ldr	r3, [r4, #40]
 418 0104 012B     		cmp	r3, #1
 419 0106 E4D1     		bne	.L36
 420 0108 A262     		str	r2, [r4, #40]
 421 010a E2E7     		b	.L36
 422              	.L40:
 423              		.align	2
 424              	.L39:
 425 010c 00000000 		.word	xfunc_output
 426 0110 00000000 		.word	uart_putch
 427 0114 04800440 		.word	1074036740
 428 0118 00800440 		.word	1074036736
 429 011c 00C00140 		.word	1073856512
 430 0120 00000000 		.word	.LC6
 431 0124 00E100E0 		.word	-536813312
 432 0128 F0400050 		.word	1342193904
 433 012c 00000000 		.word	.LANCHOR1
 434 0130 32000000 		.word	.LC11
 435 0134 E40C0000 		.word	3300
 436 0138 FF0F0000 		.word	4095
 437 013c 47000000 		.word	.LC13
 438 0140 18000000 		.word	.LC8
 440              		.global	eventCounterL
 441              		.global	start_conversion
 442              		.global	led_status
 443              		.global	adc_conversion_done
 444              		.global	ADCResultStruct
 445              		.data
 446              		.set	.LANCHOR0,. + 0
 449              	start_conversion:
 450 0000 01       		.byte	1
 451              		.bss
 452              		.align	2
 453              		.set	.LANCHOR1,. + 0
 456              	ADCResultStruct:
 457 0000 00000000 		.space	32
 457      00000000 
ARM GAS  C:\Users\DENIZA~1\AppData\Local\Temp\ccTqGCfJ.s 			page 9


 457      00000000 
 457      00000000 
 457      00000000 
 460              	adc_conversion_done:
 461 0020 00       		.space	1
 462 0021 000000   		.space	3
 465              	eventCounterL:
 466 0024 00000000 		.space	4
 469              	led_status:
 470 0028 00000000 		.space	4
 471              		.ident	"GCC: (Arm GNU Toolchain 13.3.Rel1 (Build arm-13.24)) 13.3.1 20240614"
ARM GAS  C:\Users\DENIZA~1\AppData\Local\Temp\ccTqGCfJ.s 			page 10

