ARM GAS  C:\Users\DENIZA~1\AppData\Local\Temp\ccvdofeR.s 			page 1


   1              		.cpu cortex-m0plus
   2              		.arch armv6s-m
   3              		.fpu softvfp
   4              		.eabi_attribute 20, 1
   5              		.eabi_attribute 21, 1
   6              		.eabi_attribute 23, 3
   7              		.eabi_attribute 24, 1
   8              		.eabi_attribute 25, 1
   9              		.eabi_attribute 26, 1
  10              		.eabi_attribute 30, 4
  11              		.eabi_attribute 34, 0
  12              		.eabi_attribute 18, 4
  13              		.file	"EX3_PART2.c"
  14              		.text
  15              		.align	1
  16              		.global	uart_putch
  17              		.syntax unified
  18              		.code	16
  19              		.thumb_func
  21              	uart_putch:
  22              		@ args = 0, pretend = 0, frame = 0
  23              		@ frame_needed = 0, uses_anonymous_args = 0
  24              		@ link register save eliminated.
  25 0000 0423     		movs	r3, #4
  26 0002 0349     		ldr	r1, .L5
  27              	.L2:
  28 0004 0A68     		ldr	r2, [r1]
  29 0006 1A42     		tst	r2, r3
  30 0008 FCD0     		beq	.L2
  31              		@ sp needed
  32 000a 024B     		ldr	r3, .L5+4
  33 000c 1860     		str	r0, [r3]
  34 000e 7047     		bx	lr
  35              	.L6:
  36              		.align	2
  37              	.L5:
  38 0010 08400640 		.word	1074151432
  39 0014 1C400640 		.word	1074151452
  41              		.align	1
  42              		.global	SCT0_IRQHandler
  43              		.syntax unified
  44              		.code	16
  45              		.thumb_func
  47              	SCT0_IRQHandler:
  48              		@ args = 0, pretend = 0, frame = 0
  49              		@ frame_needed = 0, uses_anonymous_args = 0
  50              		@ link register save eliminated.
  51 0018 0122     		movs	r2, #1
  52 001a 084B     		ldr	r3, .L12
  53 001c 1A60     		str	r2, [r3]
  54 001e 0022     		movs	r2, #0
  55 0020 074B     		ldr	r3, .L12+4
  56 0022 1A60     		str	r2, [r3]
  57 0024 074B     		ldr	r3, .L12+8
  58 0026 1B78     		ldrb	r3, [r3]
  59 0028 9342     		cmp	r3, r2
  60 002a 05D0     		beq	.L7
ARM GAS  C:\Users\DENIZA~1\AppData\Local\Temp\ccvdofeR.s 			page 2


  61 002c 8023     		movs	r3, #128
  62 002e 064A     		ldr	r2, .L12+12
  63 0030 DB04     		lsls	r3, r3, #19
  64 0032 9168     		ldr	r1, [r2, #8]
  65 0034 0B43     		orrs	r3, r1
  66 0036 9360     		str	r3, [r2, #8]
  67              	.L7:
  68              		@ sp needed
  69 0038 7047     		bx	lr
  70              	.L13:
  71 003a C046     		.align	2
  72              	.L12:
  73 003c F4400050 		.word	1342193908
  74 0040 FC400050 		.word	1342193916
  75 0044 00000000 		.word	.LANCHOR0
  76 0048 00C00140 		.word	1073856512
  78              		.align	1
  79              		.global	ADC0_SEQA_IRQHandler
  80              		.syntax unified
  81              		.code	16
  82              		.thumb_func
  84              	ADC0_SEQA_IRQHandler:
  85              		@ args = 0, pretend = 0, frame = 0
  86              		@ frame_needed = 0, uses_anonymous_args = 0
  87 004c 70B5     		push	{r4, r5, r6, lr}
  88 004e 8026     		movs	r6, #128
  89 0050 0A4D     		ldr	r5, .L19
  90 0052 7605     		lsls	r6, r6, #21
  91 0054 AB6E     		ldr	r3, [r5, #104]
  92 0056 3342     		tst	r3, r6
  93 0058 0FD0     		beq	.L14
  94 005a 094C     		ldr	r4, .L19+4
  95 005c 0021     		movs	r1, #0
  96 005e 2200     		movs	r2, r4
  97 0060 2800     		movs	r0, r5
  98 0062 FFF7FEFF 		bl	ADC_GetChannelConversionResult
  99 0066 2200     		movs	r2, r4
 100 0068 0121     		movs	r1, #1
 101 006a 2800     		movs	r0, r5
 102 006c 1032     		adds	r2, r2, #16
 103 006e FFF7FEFF 		bl	ADC_GetChannelConversionResult
 104 0072 0123     		movs	r3, #1
 105 0074 0134     		adds	r4, r4, #1
 106 0076 E377     		strb	r3, [r4, #31]
 107 0078 AE66     		str	r6, [r5, #104]
 108              	.L14:
 109              		@ sp needed
 110 007a 70BD     		pop	{r4, r5, r6, pc}
 111              	.L20:
 112              		.align	2
 113              	.L19:
 114 007c 00C00140 		.word	1073856512
 115 0080 00000000 		.word	.LANCHOR1
 117              		.align	1
 118              		.global	ADC_Configuration
 119              		.syntax unified
 120              		.code	16
ARM GAS  C:\Users\DENIZA~1\AppData\Local\Temp\ccvdofeR.s 			page 3


 121              		.thumb_func
 123              	ADC_Configuration:
 124              		@ args = 0, pretend = 0, frame = 24
 125              		@ frame_needed = 0, uses_anonymous_args = 0
 126 0084 0123     		movs	r3, #1
 127 0086 10B5     		push	{r4, lr}
 128 0088 86B0     		sub	sp, sp, #24
 129 008a 0193     		str	r3, [sp, #4]
 130 008c 0023     		movs	r3, #0
 131 008e 0D4C     		ldr	r4, .L22
 132 0090 01A9     		add	r1, sp, #4
 133 0092 2000     		movs	r0, r4
 134 0094 8B80     		strh	r3, [r1, #4]
 135 0096 FFF7FEFF 		bl	ADC_Init
 136 009a 0323     		movs	r3, #3
 137 009c 0393     		str	r3, [sp, #12]
 138 009e 0493     		str	r3, [sp, #16]
 139 00a0 094B     		ldr	r3, .L22+4
 140 00a2 2000     		movs	r0, r4
 141 00a4 03A9     		add	r1, sp, #12
 142 00a6 0593     		str	r3, [sp, #20]
 143 00a8 FFF7FEFF 		bl	ADC_SetConvSeqAConfig
 144 00ac 8023     		movs	r3, #128
 145 00ae A268     		ldr	r2, [r4, #8]
 146 00b0 1B06     		lsls	r3, r3, #24
 147 00b2 1343     		orrs	r3, r2
 148 00b4 A360     		str	r3, [r4, #8]
 149 00b6 8023     		movs	r3, #128
 150 00b8 A268     		ldr	r2, [r4, #8]
 151 00ba DB04     		lsls	r3, r3, #19
 152 00bc 1343     		orrs	r3, r2
 153 00be A360     		str	r3, [r4, #8]
 154 00c0 06B0     		add	sp, sp, #24
 155              		@ sp needed
 156 00c2 10BD     		pop	{r4, pc}
 157              	.L23:
 158              		.align	2
 159              	.L22:
 160 00c4 00C00140 		.word	1073856512
 161 00c8 01000001 		.word	16777217
 163              		.align	1
 164              		.global	uart_init
 165              		.syntax unified
 166              		.code	16
 167              		.thumb_func
 169              	uart_init:
 170              		@ args = 0, pretend = 0, frame = 16
 171              		@ frame_needed = 0, uses_anonymous_args = 0
 172 00cc 1FB5     		push	{r0, r1, r2, r3, r4, lr}
 173 00ce 8023     		movs	r3, #128
 174              		@ sp needed
 175 00d0 0C4A     		ldr	r2, .L25
 176 00d2 DB01     		lsls	r3, r3, #7
 177 00d4 D16F     		ldr	r1, [r2, #124]
 178 00d6 0C4C     		ldr	r4, .L25+4
 179 00d8 0B43     		orrs	r3, r1
 180 00da D367     		str	r3, [r2, #124]
ARM GAS  C:\Users\DENIZA~1\AppData\Local\Temp\ccvdofeR.s 			page 4


 181 00dc 1A22     		movs	r2, #26
 182 00de 0B4B     		ldr	r3, .L25+8
 183 00e0 6846     		mov	r0, sp
 184 00e2 1A60     		str	r2, [r3]
 185 00e4 0123     		movs	r3, #1
 186 00e6 2362     		str	r3, [r4, #32]
 187 00e8 FFF7FEFF 		bl	USART_GetDefaultConfig
 188 00ec 0223     		movs	r3, #2
 189 00ee 6A46     		mov	r2, sp
 190 00f0 FF33     		adds	r3, r3, #255
 191 00f2 9380     		strh	r3, [r2, #4]
 192 00f4 6946     		mov	r1, sp
 193 00f6 0022     		movs	r2, #0
 194 00f8 2000     		movs	r0, r4
 195 00fa FFF7FEFF 		bl	USART_Init
 196 00fe 0523     		movs	r3, #5
 197 0100 2360     		str	r3, [r4]
 198 0102 1FBD     		pop	{r0, r1, r2, r3, r4, pc}
 199              	.L26:
 200              		.align	2
 201              	.L25:
 202 0104 04800440 		.word	1074036740
 203 0108 00400640 		.word	1074151424
 204 010c 94800440 		.word	1074036884
 206              		.align	1
 207              		.global	SCT_Configuration
 208              		.syntax unified
 209              		.code	16
 210              		.thumb_func
 212              	SCT_Configuration:
 213              		@ args = 0, pretend = 0, frame = 16
 214              		@ frame_needed = 0, uses_anonymous_args = 0
 215 0110 70B5     		push	{r4, r5, r6, lr}
 216 0112 86B0     		sub	sp, sp, #24
 217 0114 03AD     		add	r5, sp, #12
 218 0116 2800     		movs	r0, r5
 219 0118 FFF7FEFF 		bl	SCTIMER_GetDefaultConfig
 220 011c 0026     		movs	r6, #0
 221 011e E723     		movs	r3, #231
 222 0120 164C     		ldr	r4, .L28
 223 0122 2900     		movs	r1, r5
 224 0124 2000     		movs	r0, r4
 225 0126 2E80     		strh	r6, [r5]
 226 0128 EE70     		strb	r6, [r5, #3]
 227 012a 6B71     		strb	r3, [r5, #5]
 228 012c FFF7FEFF 		bl	SCTIMER_Init
 229 0130 0125     		movs	r5, #1
 230 0132 CA22     		movs	r2, #202
 231 0134 8021     		movs	r1, #128
 232 0136 02AB     		add	r3, sp, #8
 233 0138 0193     		str	r3, [sp, #4]
 234 013a 0095     		str	r5, [sp]
 235 013c 3300     		movs	r3, r6
 236 013e 2000     		movs	r0, r4
 237 0140 D201     		lsls	r2, r2, #7
 238 0142 4901     		lsls	r1, r1, #5
 239 0144 FFF7FEFF 		bl	SCTIMER_CreateAndScheduleEvent
ARM GAS  C:\Users\DENIZA~1\AppData\Local\Temp\ccvdofeR.s 			page 5


 240 0148 2000     		movs	r0, r4
 241 014a 029A     		ldr	r2, [sp, #8]
 242 014c 0321     		movs	r1, #3
 243 014e FFF7FEFF 		bl	SCTIMER_SetupOutputToggleAction
 244 0152 029B     		ldr	r3, [sp, #8]
 245 0154 C121     		movs	r1, #193
 246 0156 9D40     		lsls	r5, r5, r3
 247 0158 2289     		ldrh	r2, [r4, #8]
 248 015a DB00     		lsls	r3, r3, #3
 249 015c 2A43     		orrs	r2, r5
 250 015e 92B2     		uxth	r2, r2
 251 0160 2281     		strh	r2, [r4, #8]
 252 0162 1B19     		adds	r3, r3, r4
 253 0164 8900     		lsls	r1, r1, #2
 254 0166 5A58     		ldr	r2, [r3, r1]
 255 0168 0548     		ldr	r0, .L28+4
 256 016a 0240     		ands	r2, r0
 257 016c 5A50     		str	r2, [r3, r1]
 258 016e 0422     		movs	r2, #4
 259 0170 A388     		ldrh	r3, [r4, #4]
 260 0172 9343     		bics	r3, r2
 261 0174 A380     		strh	r3, [r4, #4]
 262 0176 06B0     		add	sp, sp, #24
 263              		@ sp needed
 264 0178 70BD     		pop	{r4, r5, r6, pc}
 265              	.L29:
 266 017a C046     		.align	2
 267              	.L28:
 268 017c 00400050 		.word	1342193664
 269 0180 FFFF9FFF 		.word	-6291457
 271              		.section	.rodata.str1.1,"aMS",%progbits,1
 272              	.LC6:
 273 0000 41444320 		.ascii	"ADC Calibration Done.\015\012\000"
 273      43616C69 
 273      62726174 
 273      696F6E20 
 273      446F6E65 
 274              	.LC8:
 275 0018 41444320 		.ascii	"ADC Calibration Failed.\015\012\000"
 275      43616C69 
 275      62726174 
 275      696F6E20 
 275      4661696C 
 276              	.LC11:
 277 0032 436F6E66 		.ascii	"Configuration Done.\012\000"
 277      69677572 
 277      6174696F 
 277      6E20446F 
 277      6E652E0A 
 278              	.LC13:
 279 0047 4C656420 		.ascii	"Led : %d\015\012\000"
 279      3A202564 
 279      0D0A00
 280              		.global	__aeabi_uidiv
 281              	.LC15:
 282 0052 41444330 		.ascii	"ADC0=%d mV, ADC1=%d mV\015\012\000"
 282      3D256420 
ARM GAS  C:\Users\DENIZA~1\AppData\Local\Temp\ccvdofeR.s 			page 6


 282      6D562C20 
 282      41444331 
 282      3D256420 
 283              		.section	.text.startup,"ax",%progbits
 284              		.align	1
 285              		.global	main
 286              		.syntax unified
 287              		.code	16
 288              		.thumb_func
 290              	main:
 291              		@ args = 0, pretend = 0, frame = 16
 292              		@ frame_needed = 0, uses_anonymous_args = 0
 293 0000 F0B5     		push	{r4, r5, r6, r7, lr}
 294 0002 85B0     		sub	sp, sp, #20
 295 0004 FFF7FEFF 		bl	BOARD_InitPins
 296 0008 FFF7FEFF 		bl	BOARD_InitBootClocks
 297 000c FFF7FEFF 		bl	uart_init
 298 0010 404B     		ldr	r3, .L39
 299 0012 414A     		ldr	r2, .L39+4
 300 0014 414C     		ldr	r4, .L39+8
 301 0016 1A60     		str	r2, [r3]
 302 0018 8023     		movs	r3, #128
 303 001a E26F     		ldr	r2, [r4, #124]
 304 001c 5B00     		lsls	r3, r3, #1
 305 001e 1343     		orrs	r3, r2
 306 0020 E367     		str	r3, [r4, #124]
 307 0022 FFF7FEFF 		bl	SCT_Configuration
 308 0026 8023     		movs	r3, #128
 309 0028 E26F     		ldr	r2, [r4, #124]
 310 002a 5B04     		lsls	r3, r3, #17
 311 002c 1343     		orrs	r3, r2
 312 002e 8E22     		movs	r2, #142
 313 0030 1021     		movs	r1, #16
 314 0032 3B4D     		ldr	r5, .L39+12
 315 0034 E367     		str	r3, [r4, #124]
 316 0036 9200     		lsls	r2, r2, #2
 317 0038 AB58     		ldr	r3, [r5, r2]
 318 003a 0320     		movs	r0, #3
 319 003c 8B43     		bics	r3, r1
 320 003e AB50     		str	r3, [r5, r2]
 321 0040 A025     		movs	r5, #160
 322 0042 FFF7FEFF 		bl	CLOCK_GetFreq
 323 0046 0122     		movs	r2, #1
 324 0048 03AB     		add	r3, sp, #12
 325 004a 2D06     		lsls	r5, r5, #24
 326 004c 1A80     		strh	r2, [r3]
 327 004e 0400     		movs	r4, r0
 328 0050 0021     		movs	r1, #0
 329 0052 2800     		movs	r0, r5
 330 0054 1332     		adds	r2, r2, #19
 331 0056 FFF7FEFF 		bl	GPIO_PinInit
 332 005a 0023     		movs	r3, #0
 333 005c 2100     		movs	r1, r4
 334 005e 3148     		ldr	r0, .L39+16
 335 0060 2B75     		strb	r3, [r5, #20]
 336 0062 FFF7FEFF 		bl	ADC_DoSelfCalibration
 337 0066 0028     		cmp	r0, #0
ARM GAS  C:\Users\DENIZA~1\AppData\Local\Temp\ccvdofeR.s 			page 7


 338 0068 4BD0     		beq	.L31
 339 006a 2F48     		ldr	r0, .L39+20
 340              	.L38:
 341 006c FFF7FEFF 		bl	xprintf
 342 0070 FFF7FEFF 		bl	ADC_Configuration
 343 0074 0123     		movs	r3, #1
 344 0076 2B4A     		ldr	r2, .L39+16
 345 0078 516E     		ldr	r1, [r2, #100]
 346 007a 0B43     		orrs	r3, r1
 347 007c 5366     		str	r3, [r2, #100]
 348 007e 8023     		movs	r3, #128
 349 0080 2A4D     		ldr	r5, .L39+24
 350 0082 5B02     		lsls	r3, r3, #9
 351 0084 2B60     		str	r3, [r5]
 352 0086 C421     		movs	r1, #196
 353 0088 FF23     		movs	r3, #255
 354 008a 8900     		lsls	r1, r1, #2
 355 008c 6A58     		ldr	r2, [r5, r1]
 356 008e 9A43     		bics	r2, r3
 357 0090 7F3B     		subs	r3, r3, #127
 358 0092 1343     		orrs	r3, r2
 359 0094 6B50     		str	r3, [r5, r1]
 360 0096 FFF7FEFF 		bl	SCT_Configuration
 361 009a 254A     		ldr	r2, .L39+28
 362 009c 254C     		ldr	r4, .L39+32
 363 009e 1368     		ldr	r3, [r2]
 364 00a0 616A     		ldr	r1, [r4, #36]
 365 00a2 0B43     		orrs	r3, r1
 366 00a4 1360     		str	r3, [r2]
 367 00a6 8023     		movs	r3, #128
 368 00a8 9B00     		lsls	r3, r3, #2
 369 00aa 2B60     		str	r3, [r5]
 370 00ac A027     		movs	r7, #160
 371 00ae 2248     		ldr	r0, .L39+36
 372 00b0 FFF7FEFF 		bl	xprintf
 373 00b4 3F06     		lsls	r7, r7, #24
 374              	.L33:
 375 00b6 631C     		adds	r3, r4, #1
 376 00b8 DA7F     		ldrb	r2, [r3, #31]
 377 00ba 002A     		cmp	r2, #0
 378 00bc 23D0     		beq	.L34
 379 00be 0025     		movs	r5, #0
 380 00c0 DD77     		strb	r5, [r3, #31]
 381 00c2 A16A     		ldr	r1, [r4, #40]
 382 00c4 1D48     		ldr	r0, .L39+40
 383 00c6 FFF7FEFF 		bl	xprintf
 384 00ca A36A     		ldr	r3, [r4, #40]
 385 00cc DBB2     		uxtb	r3, r3
 386 00ce 3B75     		strb	r3, [r7, #20]
 387 00d0 A36A     		ldr	r3, [r4, #40]
 388 00d2 AB42     		cmp	r3, r5
 389 00d4 19D1     		bne	.L35
 390 00d6 0123     		movs	r3, #1
 391 00d8 A362     		str	r3, [r4, #40]
 392              	.L36:
 393 00da 2668     		ldr	r6, [r4]
 394 00dc 184D     		ldr	r5, .L39+44
ARM GAS  C:\Users\DENIZA~1\AppData\Local\Temp\ccvdofeR.s 			page 8


 395 00de 2069     		ldr	r0, [r4, #16]
 396 00e0 1849     		ldr	r1, .L39+48
 397 00e2 6843     		muls	r0, r5
 398 00e4 FFF7FEFF 		bl	__aeabi_uidiv
 399 00e8 03B2     		sxth	r3, r0
 400 00ea 2800     		movs	r0, r5
 401 00ec 1549     		ldr	r1, .L39+48
 402 00ee 7043     		muls	r0, r6
 403 00f0 0193     		str	r3, [sp, #4]
 404 00f2 FFF7FEFF 		bl	__aeabi_uidiv
 405 00f6 019A     		ldr	r2, [sp, #4]
 406 00f8 01B2     		sxth	r1, r0
 407 00fa 1348     		ldr	r0, .L39+52
 408 00fc FFF7FEFF 		bl	xprintf
 409 0100 D9E7     		b	.L33
 410              	.L31:
 411 0102 1248     		ldr	r0, .L39+56
 412 0104 B2E7     		b	.L38
 413              	.L34:
 414              		.syntax divided
 415              	@ 87 "EX3_PART2.c" 1
 416 0106 30BF     		wfi
 417              	@ 0 "" 2
 418              		.thumb
 419              		.syntax unified
 420 0108 D5E7     		b	.L33
 421              	.L35:
 422 010a A36A     		ldr	r3, [r4, #40]
 423 010c 012B     		cmp	r3, #1
 424 010e E4D1     		bne	.L36
 425 0110 A562     		str	r5, [r4, #40]
 426 0112 E2E7     		b	.L36
 427              	.L40:
 428              		.align	2
 429              	.L39:
 430 0114 00000000 		.word	xfunc_output
 431 0118 00000000 		.word	uart_putch
 432 011c 04800440 		.word	1074036740
 433 0120 00800440 		.word	1074036736
 434 0124 00C00140 		.word	1073856512
 435 0128 00000000 		.word	.LC6
 436 012c 00E100E0 		.word	-536813312
 437 0130 F0400050 		.word	1342193904
 438 0134 00000000 		.word	.LANCHOR1
 439 0138 32000000 		.word	.LC11
 440 013c 47000000 		.word	.LC13
 441 0140 E40C0000 		.word	3300
 442 0144 FF0F0000 		.word	4095
 443 0148 52000000 		.word	.LC15
 444 014c 18000000 		.word	.LC8
 446              		.global	eventCounterL
 447              		.global	start_conversion
 448              		.global	led_status
 449              		.global	adc_conversion_done
 450              		.global	ADCResultStruct
 451              		.data
 452              		.set	.LANCHOR0,. + 0
ARM GAS  C:\Users\DENIZA~1\AppData\Local\Temp\ccvdofeR.s 			page 9


 455              	start_conversion:
 456 0000 01       		.byte	1
 457              		.bss
 458              		.align	2
 459              		.set	.LANCHOR1,. + 0
 462              	ADCResultStruct:
 463 0000 00000000 		.space	32
 463      00000000 
 463      00000000 
 463      00000000 
 463      00000000 
 466              	adc_conversion_done:
 467 0020 00       		.space	1
 468 0021 000000   		.space	3
 471              	eventCounterL:
 472 0024 00000000 		.space	4
 475              	led_status:
 476 0028 00000000 		.space	4
 477              		.ident	"GCC: (Arm GNU Toolchain 13.3.Rel1 (Build arm-13.24)) 13.3.1 20240614"
ARM GAS  C:\Users\DENIZA~1\AppData\Local\Temp\ccvdofeR.s 			page 10


DEFINED SYMBOLS
                            *ABS*:00000000 EX3_PART2.c
C:\Users\DENIZA~1\AppData\Local\Temp\ccvdofeR.s:15     .text:00000000 $t
C:\Users\DENIZA~1\AppData\Local\Temp\ccvdofeR.s:21     .text:00000000 uart_putch
C:\Users\DENIZA~1\AppData\Local\Temp\ccvdofeR.s:38     .text:00000010 $d
C:\Users\DENIZA~1\AppData\Local\Temp\ccvdofeR.s:41     .text:00000018 $t
C:\Users\DENIZA~1\AppData\Local\Temp\ccvdofeR.s:47     .text:00000018 SCT0_IRQHandler
C:\Users\DENIZA~1\AppData\Local\Temp\ccvdofeR.s:73     .text:0000003c $d
C:\Users\DENIZA~1\AppData\Local\Temp\ccvdofeR.s:78     .text:0000004c $t
C:\Users\DENIZA~1\AppData\Local\Temp\ccvdofeR.s:84     .text:0000004c ADC0_SEQA_IRQHandler
C:\Users\DENIZA~1\AppData\Local\Temp\ccvdofeR.s:114    .text:0000007c $d
C:\Users\DENIZA~1\AppData\Local\Temp\ccvdofeR.s:117    .text:00000084 $t
C:\Users\DENIZA~1\AppData\Local\Temp\ccvdofeR.s:123    .text:00000084 ADC_Configuration
C:\Users\DENIZA~1\AppData\Local\Temp\ccvdofeR.s:160    .text:000000c4 $d
C:\Users\DENIZA~1\AppData\Local\Temp\ccvdofeR.s:163    .text:000000cc $t
C:\Users\DENIZA~1\AppData\Local\Temp\ccvdofeR.s:169    .text:000000cc uart_init
C:\Users\DENIZA~1\AppData\Local\Temp\ccvdofeR.s:202    .text:00000104 $d
C:\Users\DENIZA~1\AppData\Local\Temp\ccvdofeR.s:206    .text:00000110 $t
C:\Users\DENIZA~1\AppData\Local\Temp\ccvdofeR.s:212    .text:00000110 SCT_Configuration
C:\Users\DENIZA~1\AppData\Local\Temp\ccvdofeR.s:268    .text:0000017c $d
C:\Users\DENIZA~1\AppData\Local\Temp\ccvdofeR.s:284    .text.startup:00000000 $t
C:\Users\DENIZA~1\AppData\Local\Temp\ccvdofeR.s:290    .text.startup:00000000 main
C:\Users\DENIZA~1\AppData\Local\Temp\ccvdofeR.s:430    .text.startup:00000114 $d
C:\Users\DENIZA~1\AppData\Local\Temp\ccvdofeR.s:471    .bss:00000024 eventCounterL
C:\Users\DENIZA~1\AppData\Local\Temp\ccvdofeR.s:455    .data:00000000 start_conversion
C:\Users\DENIZA~1\AppData\Local\Temp\ccvdofeR.s:475    .bss:00000028 led_status
C:\Users\DENIZA~1\AppData\Local\Temp\ccvdofeR.s:466    .bss:00000020 adc_conversion_done
C:\Users\DENIZA~1\AppData\Local\Temp\ccvdofeR.s:462    .bss:00000000 ADCResultStruct
C:\Users\DENIZA~1\AppData\Local\Temp\ccvdofeR.s:458    .bss:00000000 $d

UNDEFINED SYMBOLS
ADC_GetChannelConversionResult
ADC_Init
ADC_SetConvSeqAConfig
USART_GetDefaultConfig
USART_Init
SCTIMER_GetDefaultConfig
SCTIMER_Init
SCTIMER_CreateAndScheduleEvent
SCTIMER_SetupOutputToggleAction
__aeabi_uidiv
BOARD_InitPins
BOARD_InitBootClocks
CLOCK_GetFreq
GPIO_PinInit
ADC_DoSelfCalibration
xprintf
xfunc_output
