ARM GAS  C:\Users\DENIZA~1\AppData\Local\Temp\cc8T09iw.s 			page 1


   1              		.cpu cortex-m0plus
   2              		.arch armv6s-m
   3              		.fpu softvfp
   4              		.eabi_attribute 20, 1
   5              		.eabi_attribute 21, 1
   6              		.eabi_attribute 23, 3
   7              		.eabi_attribute 24, 1
   8              		.eabi_attribute 25, 1
   9              		.eabi_attribute 26, 1
  10              		.eabi_attribute 30, 4
  11              		.eabi_attribute 34, 0
  12              		.eabi_attribute 18, 4
  13              		.file	"lm75.c"
  14              		.text
  15              		.section	.text.LM75_Write_Reg,"ax",%progbits
  16              		.align	1
  17              		.global	LM75_Write_Reg
  18              		.syntax unified
  19              		.code	16
  20              		.thumb_func
  22              	LM75_Write_Reg:
  23              		@ args = 0, pretend = 0, frame = 24
  24              		@ frame_needed = 0, uses_anonymous_args = 0
  25 0000 F0B5     		push	{r4, r5, r6, r7, lr}
  26 0002 87B0     		sub	sp, sp, #28
  27 0004 1400     		movs	r4, r2
  28 0006 0700     		movs	r7, r0
  29 0008 0E00     		movs	r6, r1
  30 000a 0822     		movs	r2, #8
  31 000c 0021     		movs	r1, #0
  32 000e 6846     		mov	r0, sp
  33 0010 1D00     		movs	r5, r3
  34 0012 FFF7FEFF 		bl	memset
  35 0016 4823     		movs	r3, #72
  36 0018 6A46     		mov	r2, sp
  37 001a 9380     		strh	r3, [r2, #4]
  38 001c 473B     		subs	r3, r3, #71
  39 001e 0393     		str	r3, [sp, #12]
  40 0020 0023     		movs	r3, #0
  41 0022 0594     		str	r4, [sp, #20]
  42 0024 074C     		ldr	r4, .L5
  43 0026 2900     		movs	r1, r5
  44 0028 0748     		ldr	r0, .L5+4
  45 002a 0297     		str	r7, [sp, #8]
  46 002c 0496     		str	r6, [sp, #16]
  47 002e 2370     		strb	r3, [r4]
  48 0030 FFF7FEFF 		bl	I2C_MasterTransferNonBlocking
  49              	.L2:
  50 0034 2378     		ldrb	r3, [r4]
  51 0036 002B     		cmp	r3, #0
  52 0038 FCD0     		beq	.L2
  53 003a 0023     		movs	r3, #0
  54 003c 2370     		strb	r3, [r4]
  55 003e 07B0     		add	sp, sp, #28
  56              		@ sp needed
  57 0040 F0BD     		pop	{r4, r5, r6, r7, pc}
  58              	.L6:
ARM GAS  C:\Users\DENIZA~1\AppData\Local\Temp\cc8T09iw.s 			page 2


  59 0042 C046     		.align	2
  60              	.L5:
  61 0044 00000000 		.word	i2c_TX_complete
  62 0048 00000540 		.word	1074069504
  64              		.section	.text.LM75_Read_Reg,"ax",%progbits
  65              		.align	1
  66              		.global	LM75_Read_Reg
  67              		.syntax unified
  68              		.code	16
  69              		.thumb_func
  71              	LM75_Read_Reg:
  72              		@ args = 0, pretend = 0, frame = 24
  73              		@ frame_needed = 0, uses_anonymous_args = 0
  74 0000 30B5     		push	{r4, r5, lr}
  75 0002 0C00     		movs	r4, r1
  76 0004 1900     		movs	r1, r3
  77 0006 114B     		ldr	r3, .L13
  78 0008 87B0     		sub	sp, sp, #28
  79 000a 0025     		movs	r5, #0
  80 000c 0193     		str	r3, [sp, #4]
  81 000e 0123     		movs	r3, #1
  82 0010 0290     		str	r0, [sp, #8]
  83 0012 0592     		str	r2, [sp, #20]
  84 0014 0E48     		ldr	r0, .L13+4
  85 0016 6A46     		mov	r2, sp
  86 0018 0393     		str	r3, [sp, #12]
  87 001a 0095     		str	r5, [sp]
  88 001c 0494     		str	r4, [sp, #16]
  89 001e FFF7FEFF 		bl	I2C_MasterTransferNonBlocking
  90 0022 0C4B     		ldr	r3, .L13+8
  91 0024 1D70     		strb	r5, [r3]
  92 0026 A842     		cmp	r0, r5
  93 0028 0DD1     		bne	.L10
  94              	.L9:
  95 002a 1A78     		ldrb	r2, [r3]
  96 002c 002A     		cmp	r2, #0
  97 002e FCD0     		beq	.L9
  98 0030 0022     		movs	r2, #0
  99 0032 6078     		ldrb	r0, [r4, #1]
 100 0034 1A70     		strb	r2, [r3]
 101 0036 2378     		ldrb	r3, [r4]
 102 0038 0002     		lsls	r0, r0, #8
 103 003a 1843     		orrs	r0, r3
 104 003c 40BA     		rev16	r0, r0
 105 003e 80B2     		uxth	r0, r0
 106 0040 4009     		lsrs	r0, r0, #5
 107              	.L8:
 108 0042 07B0     		add	sp, sp, #28
 109              		@ sp needed
 110 0044 30BD     		pop	{r4, r5, pc}
 111              	.L10:
 112 0046 0120     		movs	r0, #1
 113 0048 4042     		rsbs	r0, r0, #0
 114 004a FAE7     		b	.L8
 115              	.L14:
 116              		.align	2
 117              	.L13:
ARM GAS  C:\Users\DENIZA~1\AppData\Local\Temp\cc8T09iw.s 			page 3


 118 004c 48000100 		.word	65608
 119 0050 00000540 		.word	1074069504
 120 0054 00000000 		.word	i2c_TX_complete
 122              		.section	.rodata.print_temp.str1.1,"aMS",%progbits,1
 123              	.LC2:
 124 0000 25642E00 		.ascii	"%d.\000"
 125              	.LC4:
 126 0004 256400   		.ascii	"%d\000"
 127              	.LC6:
 128 0007 303000   		.ascii	"00\000"
 129              		.section	.text.print_temp,"ax",%progbits
 130              		.align	1
 131              		.global	print_temp
 132              		.syntax unified
 133              		.code	16
 134              		.thumb_func
 136              	print_temp:
 137              		@ args = 0, pretend = 0, frame = 0
 138              		@ frame_needed = 0, uses_anonymous_args = 0
 139 0000 10B5     		push	{r4, lr}
 140 0002 0400     		movs	r4, r0
 141 0004 0178     		ldrb	r1, [r0]
 142 0006 0948     		ldr	r0, .L17
 143 0008 FFF7FEFF 		bl	xprintf
 144 000c 7D21     		movs	r1, #125
 145 000e 6378     		ldrb	r3, [r4, #1]
 146 0010 0748     		ldr	r0, .L17+4
 147 0012 5B09     		lsrs	r3, r3, #5
 148 0014 5943     		muls	r1, r3
 149 0016 6370     		strb	r3, [r4, #1]
 150 0018 FFF7FEFF 		bl	xprintf
 151 001c 6378     		ldrb	r3, [r4, #1]
 152 001e 002B     		cmp	r3, #0
 153 0020 02D1     		bne	.L15
 154 0022 0448     		ldr	r0, .L17+8
 155 0024 FFF7FEFF 		bl	xprintf
 156              	.L15:
 157              		@ sp needed
 158 0028 10BD     		pop	{r4, pc}
 159              	.L18:
 160 002a C046     		.align	2
 161              	.L17:
 162 002c 00000000 		.word	.LC2
 163 0030 04000000 		.word	.LC4
 164 0034 07000000 		.word	.LC6
 166              		.global	__aeabi_i2f
 167              		.global	__aeabi_fmul
 168              		.global	__aeabi_fadd
 169              		.global	__aeabi_f2iz
 170              		.section	.rodata.print_temp_fahrenheit.str1.1,"aMS",%progbits,1
 171              	.LC8:
 172 0000 54203D20 		.ascii	"T = \000"
 172      00
 173              		.global	__aeabi_fsub
 174              		.global	__aeabi_f2uiz
 175              	.LC11:
 176 0005 25303364 		.ascii	"%03d\000"
ARM GAS  C:\Users\DENIZA~1\AppData\Local\Temp\cc8T09iw.s 			page 4


 176      00
 177              	.LC13:
 178 000a 20646567 		.ascii	" deg F\012\015\000"
 178      20460A0D 
 178      00
 179              		.section	.text.print_temp_fahrenheit,"ax",%progbits
 180              		.align	1
 181              		.global	print_temp_fahrenheit
 182              		.syntax unified
 183              		.code	16
 184              		.thumb_func
 186              	print_temp_fahrenheit:
 187              		@ args = 0, pretend = 0, frame = 0
 188              		@ frame_needed = 0, uses_anonymous_args = 0
 189 0000 70B5     		push	{r4, r5, r6, lr}
 190 0002 0400     		movs	r4, r0
 191              		@ sp needed
 192 0004 4078     		ldrb	r0, [r0, #1]
 193 0006 FFF7FEFF 		bl	__aeabi_i2f
 194 000a F821     		movs	r1, #248
 195 000c 8905     		lsls	r1, r1, #22
 196 000e FFF7FEFF 		bl	__aeabi_fmul
 197 0012 051C     		adds	r5, r0, #0
 198 0014 2078     		ldrb	r0, [r4]
 199 0016 FFF7FEFF 		bl	__aeabi_i2f
 200 001a 011C     		adds	r1, r0, #0
 201 001c 281C     		adds	r0, r5, #0
 202 001e FFF7FEFF 		bl	__aeabi_fadd
 203 0022 1349     		ldr	r1, .L20
 204 0024 FFF7FEFF 		bl	__aeabi_fmul
 205 0028 8421     		movs	r1, #132
 206 002a C905     		lsls	r1, r1, #23
 207 002c FFF7FEFF 		bl	__aeabi_fadd
 208 0030 041C     		adds	r4, r0, #0
 209 0032 FFF7FEFF 		bl	__aeabi_f2iz
 210 0036 05B2     		sxth	r5, r0
 211 0038 0E48     		ldr	r0, .L20+4
 212 003a FFF7FEFF 		bl	xprintf
 213 003e 2900     		movs	r1, r5
 214 0040 0D48     		ldr	r0, .L20+8
 215 0042 FFF7FEFF 		bl	xprintf
 216 0046 2800     		movs	r0, r5
 217 0048 FFF7FEFF 		bl	__aeabi_i2f
 218 004c 011C     		adds	r1, r0, #0
 219 004e 201C     		adds	r0, r4, #0
 220 0050 FFF7FEFF 		bl	__aeabi_fsub
 221 0054 0949     		ldr	r1, .L20+12
 222 0056 FFF7FEFF 		bl	__aeabi_fmul
 223 005a FFF7FEFF 		bl	__aeabi_f2uiz
 224 005e 81B2     		uxth	r1, r0
 225 0060 0748     		ldr	r0, .L20+16
 226 0062 FFF7FEFF 		bl	xprintf
 227 0066 0748     		ldr	r0, .L20+20
 228 0068 FFF7FEFF 		bl	xprintf
 229 006c 70BD     		pop	{r4, r5, r6, pc}
 230              	.L21:
 231 006e C046     		.align	2
ARM GAS  C:\Users\DENIZA~1\AppData\Local\Temp\cc8T09iw.s 			page 5


 232              	.L20:
 233 0070 6666E63F 		.word	1072064102
 234 0074 00000000 		.word	.LC8
 235 0078 00000000 		.word	.LC2
 236 007c 00007A44 		.word	1148846080
 237 0080 05000000 		.word	.LC11
 238 0084 0A000000 		.word	.LC13
 240              		.section	.text.get_temperature_celsius,"ax",%progbits
 241              		.align	1
 242              		.global	get_temperature_celsius
 243              		.syntax unified
 244              		.code	16
 245              		.thumb_func
 247              	get_temperature_celsius:
 248              		@ args = 0, pretend = 0, frame = 0
 249              		@ frame_needed = 0, uses_anonymous_args = 0
 250 0000 10B5     		push	{r4, lr}
 251 0002 0378     		ldrb	r3, [r0]
 252 0004 4078     		ldrb	r0, [r0, #1]
 253              		@ sp needed
 254 0006 0002     		lsls	r0, r0, #8
 255 0008 1843     		orrs	r0, r3
 256 000a C0BA     		revsh	r0, r0
 257 000c 4011     		asrs	r0, r0, #5
 258 000e FFF7FEFF 		bl	__aeabi_i2f
 259 0012 F821     		movs	r1, #248
 260 0014 8905     		lsls	r1, r1, #22
 261 0016 FFF7FEFF 		bl	__aeabi_fmul
 262 001a 10BD     		pop	{r4, pc}
 264              		.section	.rodata.print_os_fault.str1.1,"aMS",%progbits,1
 265              	.LC15:
 266 0000 51756575 		.ascii	"Queue Value = 1\012\000"
 266      65205661 
 266      6C756520 
 266      3D20310A 
 266      00
 267              	.LC17:
 268 0011 51756575 		.ascii	"Queue Value = 2\012\000"
 268      65205661 
 268      6C756520 
 268      3D20320A 
 268      00
 269              	.LC19:
 270 0022 51756575 		.ascii	"Queue Value = 4\012\000"
 270      65205661 
 270      6C756520 
 270      3D20340A 
 270      00
 271              	.LC21:
 272 0033 51756575 		.ascii	"Queue Value = 6\012\000"
 272      65205661 
 272      6C756520 
 272      3D20360A 
 272      00
 273              		.section	.text.print_os_fault,"ax",%progbits
 274              		.align	1
 275              		.global	print_os_fault
ARM GAS  C:\Users\DENIZA~1\AppData\Local\Temp\cc8T09iw.s 			page 6


 276              		.syntax unified
 277              		.code	16
 278              		.thumb_func
 280              	print_os_fault:
 281              		@ args = 0, pretend = 0, frame = 0
 282              		@ frame_needed = 0, uses_anonymous_args = 0
 283 0000 1823     		movs	r3, #24
 284 0002 10B5     		push	{r4, lr}
 285 0004 0278     		ldrb	r2, [r0]
 286 0006 0948     		ldr	r0, .L32
 287 0008 1A42     		tst	r2, r3
 288 000a 0BD0     		beq	.L31
 289 000c 0823     		movs	r3, #8
 290 000e 1340     		ands	r3, r2
 291 0010 D206     		lsls	r2, r2, #27
 292 0012 03D4     		bmi	.L26
 293 0014 0648     		ldr	r0, .L32+4
 294 0016 002B     		cmp	r3, #0
 295 0018 04D1     		bne	.L31
 296              	.L23:
 297              		@ sp needed
 298 001a 10BD     		pop	{r4, pc}
 299              	.L26:
 300 001c 0548     		ldr	r0, .L32+8
 301 001e 002B     		cmp	r3, #0
 302 0020 00D0     		beq	.L31
 303 0022 0548     		ldr	r0, .L32+12
 304              	.L31:
 305 0024 FFF7FEFF 		bl	xprintf
 306 0028 F7E7     		b	.L23
 307              	.L33:
 308 002a C046     		.align	2
 309              	.L32:
 310 002c 00000000 		.word	.LC15
 311 0030 11000000 		.word	.LC17
 312 0034 22000000 		.word	.LC19
 313 0038 33000000 		.word	.LC21
 315              		.ident	"GCC: (Arm GNU Toolchain 13.3.Rel1 (Build arm-13.24)) 13.3.1 20240614"
ARM GAS  C:\Users\DENIZA~1\AppData\Local\Temp\cc8T09iw.s 			page 7

