ARM GAS  C:\Users\DENIZA~1\AppData\Local\Temp\cceIS7SX.s 			page 1


   1              		.cpu cortex-m0plus
   2              		.arch armv6s-m
   3              		.fpu softvfp
   4              		.eabi_attribute 20, 1
   5              		.eabi_attribute 21, 1
   6              		.eabi_attribute 23, 3
   7              		.eabi_attribute 24, 1
   8              		.eabi_attribute 25, 1
   9              		.eabi_attribute 26, 1
  10              		.eabi_attribute 30, 4
  11              		.eabi_attribute 34, 0
  12              		.eabi_attribute 18, 4
  13              		.file	"EX3_PART1.c"
  14              		.text
  15              		.align	1
  16              		.global	uart_putch
  17              		.syntax unified
  18              		.code	16
  19              		.thumb_func
  21              	uart_putch:
  22              		@ args = 0, pretend = 0, frame = 0
  23              		@ frame_needed = 0, uses_anonymous_args = 0
  24              		@ link register save eliminated.
  25 0000 0423     		movs	r3, #4
  26 0002 0349     		ldr	r1, .L5
  27              	.L2:
  28 0004 0A68     		ldr	r2, [r1]
  29 0006 1A42     		tst	r2, r3
  30 0008 FCD0     		beq	.L2
  31              		@ sp needed
  32 000a 024B     		ldr	r3, .L5+4
  33 000c 1860     		str	r0, [r3]
  34 000e 7047     		bx	lr
  35              	.L6:
  36              		.align	2
  37              	.L5:
  38 0010 08400640 		.word	1074151432
  39 0014 1C400640 		.word	1074151452
  41              		.section	.rodata.str1.1,"aMS",%progbits,1
  42              	.LC1:
  43 0000 41646320 		.ascii	"Adc Sonuc \012\000"
  43      536F6E75 
  43      63200A00 
  44              		.text
  45              		.align	1
  46              		.global	ADC0_SEQA_IRQHandler
  47              		.syntax unified
  48              		.code	16
  49              		.thumb_func
  51              	ADC0_SEQA_IRQHandler:
  52              		@ args = 0, pretend = 0, frame = 0
  53              		@ frame_needed = 0, uses_anonymous_args = 0
  54 0018 70B5     		push	{r4, r5, r6, lr}
  55 001a 0B4C     		ldr	r4, .L16
  56 001c A36E     		ldr	r3, [r4, #104]
  57 001e DB00     		lsls	r3, r3, #3
  58 0020 11D5     		bpl	.L7
ARM GAS  C:\Users\DENIZA~1\AppData\Local\Temp\cceIS7SX.s 			page 2


  59 0022 0A4D     		ldr	r5, .L16+4
  60 0024 2000     		movs	r0, r4
  61 0026 2900     		movs	r1, r5
  62 0028 FFF7FEFF 		bl	ADC_GetConvSeqAGlobalConversionResult
  63              	.L9:
  64 002c 2A00     		movs	r2, r5
  65 002e 0021     		movs	r1, #0
  66 0030 0548     		ldr	r0, .L16
  67 0032 FFF7FEFF 		bl	ADC_GetChannelConversionResult
  68 0036 0028     		cmp	r0, #0
  69 0038 F8D0     		beq	.L9
  70 003a 0548     		ldr	r0, .L16+8
  71 003c FFF7FEFF 		bl	xprintf
  72 0040 8023     		movs	r3, #128
  73 0042 5B05     		lsls	r3, r3, #21
  74 0044 A366     		str	r3, [r4, #104]
  75              	.L7:
  76              		@ sp needed
  77 0046 70BD     		pop	{r4, r5, r6, pc}
  78              	.L17:
  79              		.align	2
  80              	.L16:
  81 0048 00C00140 		.word	1073856512
  82 004c 00000000 		.word	.LANCHOR0
  83 0050 00000000 		.word	.LC1
  85              		.align	1
  86              		.global	ADC_Configuration
  87              		.syntax unified
  88              		.code	16
  89              		.thumb_func
  91              	ADC_Configuration:
  92              		@ args = 0, pretend = 0, frame = 24
  93              		@ frame_needed = 0, uses_anonymous_args = 0
  94 0054 30B5     		push	{r4, r5, lr}
  95 0056 0023     		movs	r3, #0
  96 0058 0125     		movs	r5, #1
  97 005a 0E4C     		ldr	r4, .L19
  98 005c 87B0     		sub	sp, sp, #28
  99 005e 01A9     		add	r1, sp, #4
 100 0060 2000     		movs	r0, r4
 101 0062 8B80     		strh	r3, [r1, #4]
 102 0064 0195     		str	r5, [sp, #4]
 103 0066 FFF7FEFF 		bl	ADC_Init
 104 006a 0323     		movs	r3, #3
 105 006c 0393     		str	r3, [sp, #12]
 106 006e 0A4B     		ldr	r3, .L19+4
 107 0070 2000     		movs	r0, r4
 108 0072 03A9     		add	r1, sp, #12
 109 0074 0593     		str	r3, [sp, #20]
 110 0076 0495     		str	r5, [sp, #16]
 111 0078 FFF7FEFF 		bl	ADC_SetConvSeqAConfig
 112 007c 8023     		movs	r3, #128
 113 007e A268     		ldr	r2, [r4, #8]
 114 0080 1B06     		lsls	r3, r3, #24
 115 0082 1343     		orrs	r3, r2
 116 0084 A360     		str	r3, [r4, #8]
 117 0086 8023     		movs	r3, #128
ARM GAS  C:\Users\DENIZA~1\AppData\Local\Temp\cceIS7SX.s 			page 3


 118 0088 A268     		ldr	r2, [r4, #8]
 119 008a DB04     		lsls	r3, r3, #19
 120 008c 1343     		orrs	r3, r2
 121 008e A360     		str	r3, [r4, #8]
 122 0090 07B0     		add	sp, sp, #28
 123              		@ sp needed
 124 0092 30BD     		pop	{r4, r5, pc}
 125              	.L20:
 126              		.align	2
 127              	.L19:
 128 0094 00C00140 		.word	1073856512
 129 0098 01000001 		.word	16777217
 131              		.align	1
 132              		.global	uart_init
 133              		.syntax unified
 134              		.code	16
 135              		.thumb_func
 137              	uart_init:
 138              		@ args = 0, pretend = 0, frame = 16
 139              		@ frame_needed = 0, uses_anonymous_args = 0
 140 009c 1FB5     		push	{r0, r1, r2, r3, r4, lr}
 141 009e 8023     		movs	r3, #128
 142              		@ sp needed
 143 00a0 0C4A     		ldr	r2, .L22
 144 00a2 DB01     		lsls	r3, r3, #7
 145 00a4 D16F     		ldr	r1, [r2, #124]
 146 00a6 0C4C     		ldr	r4, .L22+4
 147 00a8 0B43     		orrs	r3, r1
 148 00aa D367     		str	r3, [r2, #124]
 149 00ac 0D22     		movs	r2, #13
 150 00ae 0B4B     		ldr	r3, .L22+8
 151 00b0 6846     		mov	r0, sp
 152 00b2 1A60     		str	r2, [r3]
 153 00b4 0123     		movs	r3, #1
 154 00b6 2362     		str	r3, [r4, #32]
 155 00b8 FFF7FEFF 		bl	USART_GetDefaultConfig
 156 00bc 0223     		movs	r3, #2
 157 00be 6A46     		mov	r2, sp
 158 00c0 FF33     		adds	r3, r3, #255
 159 00c2 9380     		strh	r3, [r2, #4]
 160 00c4 6946     		mov	r1, sp
 161 00c6 0022     		movs	r2, #0
 162 00c8 2000     		movs	r0, r4
 163 00ca FFF7FEFF 		bl	USART_Init
 164 00ce 0523     		movs	r3, #5
 165 00d0 2360     		str	r3, [r4]
 166 00d2 1FBD     		pop	{r0, r1, r2, r3, r4, pc}
 167              	.L23:
 168              		.align	2
 169              	.L22:
 170 00d4 04800440 		.word	1074036740
 171 00d8 00400640 		.word	1074151424
 172 00dc 94800440 		.word	1074036884
 174              		.align	1
 175              		.global	SCT_Configuration
 176              		.syntax unified
 177              		.code	16
ARM GAS  C:\Users\DENIZA~1\AppData\Local\Temp\cceIS7SX.s 			page 4


 178              		.thumb_func
 180              	SCT_Configuration:
 181              		@ args = 0, pretend = 0, frame = 16
 182              		@ frame_needed = 0, uses_anonymous_args = 0
 183 00e0 70B5     		push	{r4, r5, r6, lr}
 184 00e2 86B0     		sub	sp, sp, #24
 185 00e4 03AD     		add	r5, sp, #12
 186 00e6 2800     		movs	r0, r5
 187 00e8 FFF7FEFF 		bl	SCTIMER_GetDefaultConfig
 188 00ec 0026     		movs	r6, #0
 189 00ee F923     		movs	r3, #249
 190 00f0 164C     		ldr	r4, .L25
 191 00f2 2900     		movs	r1, r5
 192 00f4 2000     		movs	r0, r4
 193 00f6 2E80     		strh	r6, [r5]
 194 00f8 EE70     		strb	r6, [r5, #3]
 195 00fa 6B71     		strb	r3, [r5, #5]
 196 00fc FFF7FEFF 		bl	SCTIMER_Init
 197 0100 0125     		movs	r5, #1
 198 0102 FA22     		movs	r2, #250
 199 0104 8021     		movs	r1, #128
 200 0106 02AB     		add	r3, sp, #8
 201 0108 0193     		str	r3, [sp, #4]
 202 010a 0095     		str	r5, [sp]
 203 010c 3300     		movs	r3, r6
 204 010e 2000     		movs	r0, r4
 205 0110 9200     		lsls	r2, r2, #2
 206 0112 4901     		lsls	r1, r1, #5
 207 0114 FFF7FEFF 		bl	SCTIMER_CreateAndScheduleEvent
 208 0118 2000     		movs	r0, r4
 209 011a 029A     		ldr	r2, [sp, #8]
 210 011c 0321     		movs	r1, #3
 211 011e FFF7FEFF 		bl	SCTIMER_SetupOutputToggleAction
 212 0122 029B     		ldr	r3, [sp, #8]
 213 0124 C121     		movs	r1, #193
 214 0126 9D40     		lsls	r5, r5, r3
 215 0128 2289     		ldrh	r2, [r4, #8]
 216 012a DB00     		lsls	r3, r3, #3
 217 012c 2A43     		orrs	r2, r5
 218 012e 92B2     		uxth	r2, r2
 219 0130 2281     		strh	r2, [r4, #8]
 220 0132 1B19     		adds	r3, r3, r4
 221 0134 8900     		lsls	r1, r1, #2
 222 0136 5A58     		ldr	r2, [r3, r1]
 223 0138 0548     		ldr	r0, .L25+4
 224 013a 0240     		ands	r2, r0
 225 013c 5A50     		str	r2, [r3, r1]
 226 013e 0422     		movs	r2, #4
 227 0140 A388     		ldrh	r3, [r4, #4]
 228 0142 9343     		bics	r3, r2
 229 0144 A380     		strh	r3, [r4, #4]
 230 0146 06B0     		add	sp, sp, #24
 231              		@ sp needed
 232 0148 70BD     		pop	{r4, r5, r6, pc}
 233              	.L26:
 234 014a C046     		.align	2
 235              	.L25:
ARM GAS  C:\Users\DENIZA~1\AppData\Local\Temp\cceIS7SX.s 			page 5


 236 014c 00400050 		.word	1342193664
 237 0150 FFFF9FFF 		.word	-6291457
 239              		.section	.rodata.str1.1
 240              	.LC5:
 241 000c 41444320 		.ascii	"ADC interrupt example.\015\012\000"
 241      696E7465 
 241      72727570 
 241      74206578 
 241      616D706C 
 242              	.LC7:
 243 0025 50726573 		.ascii	"Press a key to start conversion.\015\012\000"
 243      73206120 
 243      6B657920 
 243      746F2073 
 243      74617274 
 244              	.LC9:
 245 0048 41444320 		.ascii	"ADC Calibration Done.\015\012\000"
 245      43616C69 
 245      62726174 
 245      696F6E20 
 245      446F6E65 
 246              	.LC11:
 247 0060 41444320 		.ascii	"ADC Calibration Failed.\015\012\000"
 247      43616C69 
 247      62726174 
 247      696F6E20 
 247      4661696C 
 248              	.LC13:
 249 007a 436F6E66 		.ascii	"Configuration Done.\015\012\000"
 249      69677572 
 249      6174696F 
 249      6E20446F 
 249      6E652E0D 
 250              		.section	.text.startup,"ax",%progbits
 251              		.align	1
 252              		.global	main
 253              		.syntax unified
 254              		.code	16
 255              		.thumb_func
 257              	main:
 258              		@ args = 0, pretend = 0, frame = 0
 259              		@ frame_needed = 0, uses_anonymous_args = 0
 260 0000 70B5     		push	{r4, r5, r6, lr}
 261 0002 FFF7FEFF 		bl	BOARD_InitPins
 262 0006 FFF7FEFF 		bl	BOARD_InitBootClocks
 263 000a FFF7FEFF 		bl	uart_init
 264 000e 1E4B     		ldr	r3, .L32
 265 0010 1E4A     		ldr	r2, .L32+4
 266 0012 1F48     		ldr	r0, .L32+8
 267 0014 1A60     		str	r2, [r3]
 268 0016 FFF7FEFF 		bl	xprintf
 269 001a 1E48     		ldr	r0, .L32+12
 270 001c FFF7FEFF 		bl	xprintf
 271 0020 8023     		movs	r3, #128
 272 0022 1D4C     		ldr	r4, .L32+16
 273 0024 5B00     		lsls	r3, r3, #1
 274 0026 E26F     		ldr	r2, [r4, #124]
ARM GAS  C:\Users\DENIZA~1\AppData\Local\Temp\cceIS7SX.s 			page 6


 275 0028 1C4D     		ldr	r5, .L32+20
 276 002a 1343     		orrs	r3, r2
 277 002c E367     		str	r3, [r4, #124]
 278 002e FFF7FEFF 		bl	SCT_Configuration
 279 0032 8023     		movs	r3, #128
 280 0034 E26F     		ldr	r2, [r4, #124]
 281 0036 5B04     		lsls	r3, r3, #17
 282 0038 1343     		orrs	r3, r2
 283 003a 8E22     		movs	r2, #142
 284 003c 1021     		movs	r1, #16
 285 003e E367     		str	r3, [r4, #124]
 286 0040 9200     		lsls	r2, r2, #2
 287 0042 AB58     		ldr	r3, [r5, r2]
 288 0044 0320     		movs	r0, #3
 289 0046 8B43     		bics	r3, r1
 290 0048 AB50     		str	r3, [r5, r2]
 291 004a FFF7FEFF 		bl	CLOCK_GetFreq
 292 004e 0100     		movs	r1, r0
 293 0050 1348     		ldr	r0, .L32+24
 294 0052 FFF7FEFF 		bl	ADC_DoSelfCalibration
 295 0056 0028     		cmp	r0, #0
 296 0058 13D0     		beq	.L28
 297 005a 1248     		ldr	r0, .L32+28
 298              	.L31:
 299 005c FFF7FEFF 		bl	xprintf
 300 0060 FFF7FEFF 		bl	ADC_Configuration
 301 0064 0123     		movs	r3, #1
 302 0066 0E4A     		ldr	r2, .L32+24
 303 0068 516E     		ldr	r1, [r2, #100]
 304 006a 0B43     		orrs	r3, r1
 305 006c 5366     		str	r3, [r2, #100]
 306 006e 8022     		movs	r2, #128
 307 0070 0D4B     		ldr	r3, .L32+32
 308 0072 5202     		lsls	r2, r2, #9
 309 0074 1A60     		str	r2, [r3]
 310 0076 0D48     		ldr	r0, .L32+36
 311 0078 FFF7FEFF 		bl	xprintf
 312              	.L30:
 313 007c FFF7FEFF 		bl	DbgConsole_Getchar
 314 0080 FCE7     		b	.L30
 315              	.L28:
 316 0082 0B48     		ldr	r0, .L32+40
 317 0084 EAE7     		b	.L31
 318              	.L33:
 319 0086 C046     		.align	2
 320              	.L32:
 321 0088 00000000 		.word	xfunc_output
 322 008c 00000000 		.word	uart_putch
 323 0090 0C000000 		.word	.LC5
 324 0094 25000000 		.word	.LC7
 325 0098 04800440 		.word	1074036740
 326 009c 00800440 		.word	1074036736
 327 00a0 00C00140 		.word	1073856512
 328 00a4 48000000 		.word	.LC9
 329 00a8 00E100E0 		.word	-536813312
 330 00ac 7A000000 		.word	.LC13
 331 00b0 60000000 		.word	.LC11
ARM GAS  C:\Users\DENIZA~1\AppData\Local\Temp\cceIS7SX.s 			page 7


 333              		.text
 334              		.align	1
 335              		.global	config_uart0
 336              		.syntax unified
 337              		.code	16
 338              		.thumb_func
 340              	config_uart0:
 341              		@ args = 0, pretend = 0, frame = 0
 342              		@ frame_needed = 0, uses_anonymous_args = 0
 343              		@ link register save eliminated.
 344 0154 8023     		movs	r3, #128
 345              		@ sp needed
 346 0156 074A     		ldr	r2, .L35
 347 0158 DB01     		lsls	r3, r3, #7
 348 015a 1168     		ldr	r1, [r2]
 349 015c 0B43     		orrs	r3, r1
 350 015e 1360     		str	r3, [r2]
 351 0160 1022     		movs	r2, #16
 352 0162 054B     		ldr	r3, .L35+4
 353 0164 1A60     		str	r2, [r3]
 354 0166 054B     		ldr	r3, .L35+8
 355 0168 0C3A     		subs	r2, r2, #12
 356 016a 1A60     		str	r2, [r3]
 357 016c 044B     		ldr	r3, .L35+12
 358 016e 0132     		adds	r2, r2, #1
 359 0170 1A60     		str	r2, [r3]
 360 0172 7047     		bx	lr
 361              	.L36:
 362              		.align	2
 363              	.L35:
 364 0174 80800440 		.word	1074036864
 365 0178 94800440 		.word	1074036884
 366 017c 20400640 		.word	1074151456
 367 0180 00400640 		.word	1074151424
 369              		.global	ADCResultStruct
 370              		.bss
 371              		.align	2
 372              		.set	.LANCHOR0,. + 0
 375              	ADCResultStruct:
 376 0000 00000000 		.space	32
 376      00000000 
 376      00000000 
 376      00000000 
 376      00000000 
 377              		.ident	"GCC: (Arm GNU Toolchain 13.3.Rel1 (Build arm-13.24)) 13.3.1 20240614"
ARM GAS  C:\Users\DENIZA~1\AppData\Local\Temp\cceIS7SX.s 			page 8

