ARM GAS  C:\Users\DENIZA~1\AppData\Local\Temp\ccPe4aid.s 			page 1


   1              		.cpu cortex-m0plus
   2              		.arch armv6s-m
   3              		.fpu softvfp
   4              		.eabi_attribute 20, 1
   5              		.eabi_attribute 21, 1
   6              		.eabi_attribute 23, 3
   7              		.eabi_attribute 24, 1
   8              		.eabi_attribute 25, 1
   9              		.eabi_attribute 26, 1
  10              		.eabi_attribute 30, 4
  11              		.eabi_attribute 34, 0
  12              		.eabi_attribute 18, 4
  13              		.file	"EX3_PART1.c"
  14              		.text
  15              		.align	1
  16              		.global	uart_putch
  17              		.syntax unified
  18              		.code	16
  19              		.thumb_func
  21              	uart_putch:
  22              		@ args = 0, pretend = 0, frame = 0
  23              		@ frame_needed = 0, uses_anonymous_args = 0
  24              		@ link register save eliminated.
  25 0000 0423     		movs	r3, #4
  26 0002 0349     		ldr	r1, .L5
  27              	.L2:
  28 0004 0A68     		ldr	r2, [r1]
  29 0006 1A42     		tst	r2, r3
  30 0008 FCD0     		beq	.L2
  31              		@ sp needed
  32 000a 024B     		ldr	r3, .L5+4
  33 000c 1860     		str	r0, [r3]
  34 000e 7047     		bx	lr
  35              	.L6:
  36              		.align	2
  37              	.L5:
  38 0010 08400640 		.word	1074151432
  39 0014 1C400640 		.word	1074151452
  41              		.align	1
  42              		.global	ADC0_SEQA_IRQHandler
  43              		.syntax unified
  44              		.code	16
  45              		.thumb_func
  47              	ADC0_SEQA_IRQHandler:
  48              		@ args = 0, pretend = 0, frame = 0
  49              		@ frame_needed = 0, uses_anonymous_args = 0
  50 0018 70B5     		push	{r4, r5, r6, lr}
  51 001a 8026     		movs	r6, #128
  52 001c 0A4D     		ldr	r5, .L12
  53 001e 7605     		lsls	r6, r6, #21
  54 0020 AB6E     		ldr	r3, [r5, #104]
  55 0022 3342     		tst	r3, r6
  56 0024 0FD0     		beq	.L7
  57 0026 094C     		ldr	r4, .L12+4
  58 0028 0021     		movs	r1, #0
  59 002a 2200     		movs	r2, r4
  60 002c 2800     		movs	r0, r5
ARM GAS  C:\Users\DENIZA~1\AppData\Local\Temp\ccPe4aid.s 			page 2


  61 002e FFF7FEFF 		bl	ADC_GetChannelConversionResult
  62 0032 2200     		movs	r2, r4
  63 0034 0121     		movs	r1, #1
  64 0036 2800     		movs	r0, r5
  65 0038 1032     		adds	r2, r2, #16
  66 003a FFF7FEFF 		bl	ADC_GetChannelConversionResult
  67 003e 0123     		movs	r3, #1
  68 0040 0134     		adds	r4, r4, #1
  69 0042 E377     		strb	r3, [r4, #31]
  70 0044 AE66     		str	r6, [r5, #104]
  71              	.L7:
  72              		@ sp needed
  73 0046 70BD     		pop	{r4, r5, r6, pc}
  74              	.L13:
  75              		.align	2
  76              	.L12:
  77 0048 00C00140 		.word	1073856512
  78 004c 00000000 		.word	.LANCHOR0
  80              		.align	1
  81              		.global	ADC_Configuration
  82              		.syntax unified
  83              		.code	16
  84              		.thumb_func
  86              	ADC_Configuration:
  87              		@ args = 0, pretend = 0, frame = 24
  88              		@ frame_needed = 0, uses_anonymous_args = 0
  89 0050 30B5     		push	{r4, r5, lr}
  90 0052 0023     		movs	r3, #0
  91 0054 0125     		movs	r5, #1
  92 0056 0E4C     		ldr	r4, .L15
  93 0058 87B0     		sub	sp, sp, #28
  94 005a 01A9     		add	r1, sp, #4
  95 005c 2000     		movs	r0, r4
  96 005e 8B80     		strh	r3, [r1, #4]
  97 0060 0195     		str	r5, [sp, #4]
  98 0062 FFF7FEFF 		bl	ADC_Init
  99 0066 0323     		movs	r3, #3
 100 0068 0393     		str	r3, [sp, #12]
 101 006a 0A4B     		ldr	r3, .L15+4
 102 006c 2000     		movs	r0, r4
 103 006e 03A9     		add	r1, sp, #12
 104 0070 0593     		str	r3, [sp, #20]
 105 0072 0495     		str	r5, [sp, #16]
 106 0074 FFF7FEFF 		bl	ADC_SetConvSeqAConfig
 107 0078 8023     		movs	r3, #128
 108 007a A268     		ldr	r2, [r4, #8]
 109 007c 1B06     		lsls	r3, r3, #24
 110 007e 1343     		orrs	r3, r2
 111 0080 A360     		str	r3, [r4, #8]
 112 0082 8023     		movs	r3, #128
 113 0084 A268     		ldr	r2, [r4, #8]
 114 0086 DB04     		lsls	r3, r3, #19
 115 0088 1343     		orrs	r3, r2
 116 008a A360     		str	r3, [r4, #8]
 117 008c 07B0     		add	sp, sp, #28
 118              		@ sp needed
 119 008e 30BD     		pop	{r4, r5, pc}
ARM GAS  C:\Users\DENIZA~1\AppData\Local\Temp\ccPe4aid.s 			page 3


 120              	.L16:
 121              		.align	2
 122              	.L15:
 123 0090 00C00140 		.word	1073856512
 124 0094 01000001 		.word	16777217
 126              		.align	1
 127              		.global	uart_init
 128              		.syntax unified
 129              		.code	16
 130              		.thumb_func
 132              	uart_init:
 133              		@ args = 0, pretend = 0, frame = 16
 134              		@ frame_needed = 0, uses_anonymous_args = 0
 135 0098 1FB5     		push	{r0, r1, r2, r3, r4, lr}
 136 009a 8023     		movs	r3, #128
 137              		@ sp needed
 138 009c 0C4A     		ldr	r2, .L18
 139 009e DB01     		lsls	r3, r3, #7
 140 00a0 D16F     		ldr	r1, [r2, #124]
 141 00a2 0C4C     		ldr	r4, .L18+4
 142 00a4 0B43     		orrs	r3, r1
 143 00a6 D367     		str	r3, [r2, #124]
 144 00a8 2722     		movs	r2, #39
 145 00aa 0B4B     		ldr	r3, .L18+8
 146 00ac 6846     		mov	r0, sp
 147 00ae 1A60     		str	r2, [r3]
 148 00b0 0123     		movs	r3, #1
 149 00b2 2362     		str	r3, [r4, #32]
 150 00b4 FFF7FEFF 		bl	USART_GetDefaultConfig
 151 00b8 0223     		movs	r3, #2
 152 00ba 6A46     		mov	r2, sp
 153 00bc FF33     		adds	r3, r3, #255
 154 00be 9380     		strh	r3, [r2, #4]
 155 00c0 6946     		mov	r1, sp
 156 00c2 0022     		movs	r2, #0
 157 00c4 2000     		movs	r0, r4
 158 00c6 FFF7FEFF 		bl	USART_Init
 159 00ca 0523     		movs	r3, #5
 160 00cc 2360     		str	r3, [r4]
 161 00ce 1FBD     		pop	{r0, r1, r2, r3, r4, pc}
 162              	.L19:
 163              		.align	2
 164              	.L18:
 165 00d0 04800440 		.word	1074036740
 166 00d4 00400640 		.word	1074151424
 167 00d8 94800440 		.word	1074036884
 169              		.align	1
 170              		.global	SCT_Configuration
 171              		.syntax unified
 172              		.code	16
 173              		.thumb_func
 175              	SCT_Configuration:
 176              		@ args = 0, pretend = 0, frame = 16
 177              		@ frame_needed = 0, uses_anonymous_args = 0
 178 00dc 70B5     		push	{r4, r5, r6, lr}
 179 00de 86B0     		sub	sp, sp, #24
 180 00e0 03AD     		add	r5, sp, #12
ARM GAS  C:\Users\DENIZA~1\AppData\Local\Temp\ccPe4aid.s 			page 4


 181 00e2 2800     		movs	r0, r5
 182 00e4 FFF7FEFF 		bl	SCTIMER_GetDefaultConfig
 183 00e8 0026     		movs	r6, #0
 184 00ea FF23     		movs	r3, #255
 185 00ec 154C     		ldr	r4, .L21
 186 00ee 2900     		movs	r1, r5
 187 00f0 2000     		movs	r0, r4
 188 00f2 2E80     		strh	r6, [r5]
 189 00f4 EE70     		strb	r6, [r5, #3]
 190 00f6 6B71     		strb	r3, [r5, #5]
 191 00f8 FFF7FEFF 		bl	SCTIMER_Init
 192 00fc 0125     		movs	r5, #1
 193 00fe 8021     		movs	r1, #128
 194 0100 02AB     		add	r3, sp, #8
 195 0102 2A00     		movs	r2, r5
 196 0104 0193     		str	r3, [sp, #4]
 197 0106 0095     		str	r5, [sp]
 198 0108 3300     		movs	r3, r6
 199 010a 2000     		movs	r0, r4
 200 010c 4901     		lsls	r1, r1, #5
 201 010e FFF7FEFF 		bl	SCTIMER_CreateAndScheduleEvent
 202 0112 2000     		movs	r0, r4
 203 0114 029A     		ldr	r2, [sp, #8]
 204 0116 0321     		movs	r1, #3
 205 0118 FFF7FEFF 		bl	SCTIMER_SetupOutputToggleAction
 206 011c 029B     		ldr	r3, [sp, #8]
 207 011e C121     		movs	r1, #193
 208 0120 9D40     		lsls	r5, r5, r3
 209 0122 2289     		ldrh	r2, [r4, #8]
 210 0124 DB00     		lsls	r3, r3, #3
 211 0126 2A43     		orrs	r2, r5
 212 0128 92B2     		uxth	r2, r2
 213 012a 2281     		strh	r2, [r4, #8]
 214 012c 1B19     		adds	r3, r3, r4
 215 012e 8900     		lsls	r1, r1, #2
 216 0130 5A58     		ldr	r2, [r3, r1]
 217 0132 0548     		ldr	r0, .L21+4
 218 0134 0240     		ands	r2, r0
 219 0136 5A50     		str	r2, [r3, r1]
 220 0138 0422     		movs	r2, #4
 221 013a A388     		ldrh	r3, [r4, #4]
 222 013c 9343     		bics	r3, r2
 223 013e A380     		strh	r3, [r4, #4]
 224 0140 06B0     		add	sp, sp, #24
 225              		@ sp needed
 226 0142 70BD     		pop	{r4, r5, r6, pc}
 227              	.L22:
 228              		.align	2
 229              	.L21:
 230 0144 00400050 		.word	1342193664
 231 0148 FFFF9FFF 		.word	-6291457
 233              		.section	.rodata.str1.1,"aMS",%progbits,1
 234              	.LC5:
 235 0000 41444320 		.ascii	"ADC Calibration Done.\015\012\000"
 235      43616C69 
 235      62726174 
 235      696F6E20 
ARM GAS  C:\Users\DENIZA~1\AppData\Local\Temp\ccPe4aid.s 			page 5


 235      446F6E65 
 236              	.LC7:
 237 0018 41444320 		.ascii	"ADC Calibration Failed.\015\012\000"
 237      43616C69 
 237      62726174 
 237      696F6E20 
 237      4661696C 
 238              	.LC9:
 239 0032 436F6E66 		.ascii	"Configuration Done.\012\000"
 239      69677572 
 239      6174696F 
 239      6E20446F 
 239      6E652E0A 
 240              	.LC12:
 241 0047 53746172 		.ascii	"Starting ADC conversion...\015\012\000"
 241      74696E67 
 241      20414443 
 241      20636F6E 
 241      76657273 
 242              		.global	__aeabi_uidiv
 243              	.LC14:
 244 0064 41444330 		.ascii	"ADC0(Pin 7)=%d mV, ADC1(Pin 6)=%d mV\015\012\000"
 244      2850696E 
 244      2037293D 
 244      2564206D 
 244      562C2041 
 245              		.section	.text.startup,"ax",%progbits
 246              		.align	1
 247              		.global	main
 248              		.syntax unified
 249              		.code	16
 250              		.thumb_func
 252              	main:
 253              		@ args = 0, pretend = 0, frame = 8
 254              		@ frame_needed = 0, uses_anonymous_args = 0
 255 0000 F7B5     		push	{r0, r1, r2, r4, r5, r6, r7, lr}
 256 0002 FFF7FEFF 		bl	BOARD_InitPins
 257 0006 FFF7FEFF 		bl	BOARD_InitBootClocks
 258 000a FFF7FEFF 		bl	uart_init
 259 000e 2F4B     		ldr	r3, .L34
 260 0010 2F4A     		ldr	r2, .L34+4
 261 0012 304C     		ldr	r4, .L34+8
 262 0014 1A60     		str	r2, [r3]
 263 0016 8023     		movs	r3, #128
 264 0018 E26F     		ldr	r2, [r4, #124]
 265 001a 5B00     		lsls	r3, r3, #1
 266 001c 1343     		orrs	r3, r2
 267 001e E367     		str	r3, [r4, #124]
 268 0020 FFF7FEFF 		bl	SCT_Configuration
 269 0024 8023     		movs	r3, #128
 270 0026 E26F     		ldr	r2, [r4, #124]
 271 0028 5B04     		lsls	r3, r3, #17
 272 002a 1343     		orrs	r3, r2
 273 002c 8E22     		movs	r2, #142
 274 002e 1021     		movs	r1, #16
 275 0030 294D     		ldr	r5, .L34+12
 276 0032 E367     		str	r3, [r4, #124]
ARM GAS  C:\Users\DENIZA~1\AppData\Local\Temp\ccPe4aid.s 			page 6


 277 0034 9200     		lsls	r2, r2, #2
 278 0036 AB58     		ldr	r3, [r5, r2]
 279 0038 0320     		movs	r0, #3
 280 003a 8B43     		bics	r3, r1
 281 003c AB50     		str	r3, [r5, r2]
 282 003e FFF7FEFF 		bl	CLOCK_GetFreq
 283 0042 0100     		movs	r1, r0
 284 0044 2548     		ldr	r0, .L34+16
 285 0046 FFF7FEFF 		bl	ADC_DoSelfCalibration
 286 004a 0028     		cmp	r0, #0
 287 004c 3CD0     		beq	.L24
 288 004e 2448     		ldr	r0, .L34+20
 289              	.L33:
 290 0050 FFF7FEFF 		bl	xprintf
 291 0054 FFF7FEFF 		bl	ADC_Configuration
 292 0058 0122     		movs	r2, #1
 293 005a 204D     		ldr	r5, .L34+16
 294 005c 6B6E     		ldr	r3, [r5, #100]
 295 005e 1343     		orrs	r3, r2
 296 0060 6B66     		str	r3, [r5, #100]
 297 0062 8021     		movs	r1, #128
 298 0064 1F4B     		ldr	r3, .L34+24
 299 0066 4902     		lsls	r1, r1, #9
 300 0068 1960     		str	r1, [r3]
 301 006a 1F49     		ldr	r1, .L34+28
 302 006c CA60     		str	r2, [r1, #12]
 303 006e 0732     		adds	r2, r2, #7
 304 0070 1A60     		str	r2, [r3]
 305 0072 1E48     		ldr	r0, .L34+32
 306 0074 FFF7FEFF 		bl	xprintf
 307 0078 0026     		movs	r6, #0
 308              	.L28:
 309 007a 1D4C     		ldr	r4, .L34+36
 310 007c 1D4B     		ldr	r3, .L34+40
 311              	.L26:
 312 007e DA7F     		ldrb	r2, [r3, #31]
 313 0080 002A     		cmp	r2, #0
 314 0082 FCD0     		beq	.L26
 315 0084 1C48     		ldr	r0, .L34+44
 316 0086 DE77     		strb	r6, [r3, #31]
 317 0088 FFF7FEFF 		bl	xprintf
 318 008c 8023     		movs	r3, #128
 319 008e AA68     		ldr	r2, [r5, #8]
 320 0090 DB04     		lsls	r3, r3, #19
 321 0092 1343     		orrs	r3, r2
 322 0094 AB60     		str	r3, [r5, #8]
 323 0096 631C     		adds	r3, r4, #1
 324              	.L27:
 325 0098 DA7F     		ldrb	r2, [r3, #31]
 326 009a 002A     		cmp	r2, #0
 327 009c FCD0     		beq	.L27
 328 009e DE77     		strb	r6, [r3, #31]
 329 00a0 2768     		ldr	r7, [r4]
 330 00a2 2069     		ldr	r0, [r4, #16]
 331 00a4 154C     		ldr	r4, .L34+48
 332 00a6 1649     		ldr	r1, .L34+52
 333 00a8 6043     		muls	r0, r4
ARM GAS  C:\Users\DENIZA~1\AppData\Local\Temp\ccPe4aid.s 			page 7


 334 00aa FFF7FEFF 		bl	__aeabi_uidiv
 335 00ae 03B2     		sxth	r3, r0
 336 00b0 2000     		movs	r0, r4
 337 00b2 1349     		ldr	r1, .L34+52
 338 00b4 7843     		muls	r0, r7
 339 00b6 0193     		str	r3, [sp, #4]
 340 00b8 FFF7FEFF 		bl	__aeabi_uidiv
 341 00bc 019A     		ldr	r2, [sp, #4]
 342 00be 01B2     		sxth	r1, r0
 343 00c0 1048     		ldr	r0, .L34+56
 344 00c2 FFF7FEFF 		bl	xprintf
 345 00c6 D8E7     		b	.L28
 346              	.L24:
 347 00c8 0F48     		ldr	r0, .L34+60
 348 00ca C1E7     		b	.L33
 349              	.L35:
 350              		.align	2
 351              	.L34:
 352 00cc 00000000 		.word	xfunc_output
 353 00d0 00000000 		.word	uart_putch
 354 00d4 04800440 		.word	1074036740
 355 00d8 00800440 		.word	1074036736
 356 00dc 00C00140 		.word	1073856512
 357 00e0 00000000 		.word	.LC5
 358 00e4 00E100E0 		.word	-536813312
 359 00e8 00400640 		.word	1074151424
 360 00ec 32000000 		.word	.LC9
 361 00f0 00000000 		.word	.LANCHOR0
 362 00f4 02000000 		.word	.LANCHOR0+2
 363 00f8 47000000 		.word	.LC12
 364 00fc E40C0000 		.word	3300
 365 0100 FF0F0000 		.word	4095
 366 0104 64000000 		.word	.LC14
 367 0108 18000000 		.word	.LC7
 369              		.text
 370              		.align	1
 371              		.global	USART0_IRQHandler
 372              		.syntax unified
 373              		.code	16
 374              		.thumb_func
 376              	USART0_IRQHandler:
 377              		@ args = 0, pretend = 0, frame = 0
 378              		@ frame_needed = 0, uses_anonymous_args = 0
 379              		@ link register save eliminated.
 380 014c 0122     		movs	r2, #1
 381 014e 044B     		ldr	r3, .L41
 382 0150 9968     		ldr	r1, [r3, #8]
 383 0152 1142     		tst	r1, r2
 384 0154 03D0     		beq	.L36
 385 0156 5969     		ldr	r1, [r3, #20]
 386 0158 0249     		ldr	r1, .L41+4
 387 015a CA77     		strb	r2, [r1, #31]
 388 015c 9A60     		str	r2, [r3, #8]
 389              	.L36:
 390              		@ sp needed
 391 015e 7047     		bx	lr
 392              	.L42:
ARM GAS  C:\Users\DENIZA~1\AppData\Local\Temp\ccPe4aid.s 			page 8


 393              		.align	2
 394              	.L41:
 395 0160 00400640 		.word	1074151424
 396 0164 02000000 		.word	.LANCHOR0+2
 398              		.global	start_conversion
 399              		.global	adc_conversion_done
 400              		.global	ADCResultStruct
 401              		.bss
 402              		.align	2
 403              		.set	.LANCHOR0,. + 0
 406              	ADCResultStruct:
 407 0000 00000000 		.space	32
 407      00000000 
 407      00000000 
 407      00000000 
 407      00000000 
 410              	adc_conversion_done:
 411 0020 00       		.space	1
 414              	start_conversion:
 415 0021 00       		.space	1
 416              		.ident	"GCC: (Arm GNU Toolchain 13.3.Rel1 (Build arm-13.24)) 13.3.1 20240614"
ARM GAS  C:\Users\DENIZA~1\AppData\Local\Temp\ccPe4aid.s 			page 9


DEFINED SYMBOLS
                            *ABS*:00000000 EX3_PART1.c
C:\Users\DENIZA~1\AppData\Local\Temp\ccPe4aid.s:15     .text:00000000 $t
C:\Users\DENIZA~1\AppData\Local\Temp\ccPe4aid.s:21     .text:00000000 uart_putch
C:\Users\DENIZA~1\AppData\Local\Temp\ccPe4aid.s:38     .text:00000010 $d
C:\Users\DENIZA~1\AppData\Local\Temp\ccPe4aid.s:41     .text:00000018 $t
C:\Users\DENIZA~1\AppData\Local\Temp\ccPe4aid.s:47     .text:00000018 ADC0_SEQA_IRQHandler
C:\Users\DENIZA~1\AppData\Local\Temp\ccPe4aid.s:77     .text:00000048 $d
C:\Users\DENIZA~1\AppData\Local\Temp\ccPe4aid.s:80     .text:00000050 $t
C:\Users\DENIZA~1\AppData\Local\Temp\ccPe4aid.s:86     .text:00000050 ADC_Configuration
C:\Users\DENIZA~1\AppData\Local\Temp\ccPe4aid.s:123    .text:00000090 $d
C:\Users\DENIZA~1\AppData\Local\Temp\ccPe4aid.s:126    .text:00000098 $t
C:\Users\DENIZA~1\AppData\Local\Temp\ccPe4aid.s:132    .text:00000098 uart_init
C:\Users\DENIZA~1\AppData\Local\Temp\ccPe4aid.s:165    .text:000000d0 $d
C:\Users\DENIZA~1\AppData\Local\Temp\ccPe4aid.s:169    .text:000000dc $t
C:\Users\DENIZA~1\AppData\Local\Temp\ccPe4aid.s:175    .text:000000dc SCT_Configuration
C:\Users\DENIZA~1\AppData\Local\Temp\ccPe4aid.s:230    .text:00000144 $d
C:\Users\DENIZA~1\AppData\Local\Temp\ccPe4aid.s:246    .text.startup:00000000 $t
C:\Users\DENIZA~1\AppData\Local\Temp\ccPe4aid.s:252    .text.startup:00000000 main
C:\Users\DENIZA~1\AppData\Local\Temp\ccPe4aid.s:352    .text.startup:000000cc $d
C:\Users\DENIZA~1\AppData\Local\Temp\ccPe4aid.s:370    .text:0000014c $t
C:\Users\DENIZA~1\AppData\Local\Temp\ccPe4aid.s:376    .text:0000014c USART0_IRQHandler
C:\Users\DENIZA~1\AppData\Local\Temp\ccPe4aid.s:395    .text:00000160 $d
C:\Users\DENIZA~1\AppData\Local\Temp\ccPe4aid.s:414    .bss:00000021 start_conversion
C:\Users\DENIZA~1\AppData\Local\Temp\ccPe4aid.s:410    .bss:00000020 adc_conversion_done
C:\Users\DENIZA~1\AppData\Local\Temp\ccPe4aid.s:406    .bss:00000000 ADCResultStruct
C:\Users\DENIZA~1\AppData\Local\Temp\ccPe4aid.s:402    .bss:00000000 $d

UNDEFINED SYMBOLS
ADC_GetChannelConversionResult
ADC_Init
ADC_SetConvSeqAConfig
USART_GetDefaultConfig
USART_Init
SCTIMER_GetDefaultConfig
SCTIMER_Init
SCTIMER_CreateAndScheduleEvent
SCTIMER_SetupOutputToggleAction
__aeabi_uidiv
BOARD_InitPins
BOARD_InitBootClocks
CLOCK_GetFreq
ADC_DoSelfCalibration
xprintf
xfunc_output
